ARM GAS  /var/folders/lc/nz4b4n9j0917x10rycn0nzqh0000gn/T//ccns7ZyM.s 			page 1


   1              		.cpu cortex-m7
   2              		.arch armv7e-m
   3              		.fpu fpv5-d16
   4              		.eabi_attribute 28, 1
   5              		.eabi_attribute 20, 1
   6              		.eabi_attribute 21, 1
   7              		.eabi_attribute 23, 3
   8              		.eabi_attribute 24, 1
   9              		.eabi_attribute 25, 1
  10              		.eabi_attribute 26, 1
  11              		.eabi_attribute 30, 2
  12              		.eabi_attribute 34, 1
  13              		.eabi_attribute 18, 4
  14              		.file	"SynthWithMoogLadder.cpp"
  15              		.text
  16              	.Ltext0:
  17              		.cfi_sections	.debug_frame
  18              		.section	.text._ZN5daisy8DaisyPodD2Ev,"axG",%progbits,_ZN5daisy8DaisyPodD5Ev,comdat
  19              		.align	1
  20              		.p2align 2,,3
  21              		.weak	_ZN5daisy8DaisyPodD2Ev
  22              		.syntax unified
  23              		.thumb
  24              		.thumb_func
  26              	_ZN5daisy8DaisyPodD2Ev:
  27              	.LVL0:
  28              	.LFB2565:
  29              		.file 1 "../../libDaisy//src/daisy_pod.h"
   1:../../libDaisy//src/daisy_pod.h **** #pragma once
   2:../../libDaisy//src/daisy_pod.h **** #ifndef DSY_POD_BSP_H
   3:../../libDaisy//src/daisy_pod.h **** #define DSY_POD_BSP_H
   4:../../libDaisy//src/daisy_pod.h **** 
   5:../../libDaisy//src/daisy_pod.h **** #include "daisy_seed.h"
   6:../../libDaisy//src/daisy_pod.h **** 
   7:../../libDaisy//src/daisy_pod.h **** namespace daisy
   8:../../libDaisy//src/daisy_pod.h **** {
   9:../../libDaisy//src/daisy_pod.h **** /**
  10:../../libDaisy//src/daisy_pod.h ****     @brief Class that handles initializing all of the hardware specific to the Daisy Patch Board. \
  11:../../libDaisy//src/daisy_pod.h ****     Helper funtions are also in place to provide easy access to built-in controls and peripherals.
  12:../../libDaisy//src/daisy_pod.h ****     @author Stephen Hensley
  13:../../libDaisy//src/daisy_pod.h ****     @date November 2019
  14:../../libDaisy//src/daisy_pod.h ****     @ingroup boards
  15:../../libDaisy//src/daisy_pod.h **** */
  16:../../libDaisy//src/daisy_pod.h **** class DaisyPod
  17:../../libDaisy//src/daisy_pod.h **** {
  18:../../libDaisy//src/daisy_pod.h ****   public:
  19:../../libDaisy//src/daisy_pod.h ****     /** Switches */
  20:../../libDaisy//src/daisy_pod.h ****     enum Sw
  21:../../libDaisy//src/daisy_pod.h ****     {
  22:../../libDaisy//src/daisy_pod.h ****         BUTTON_1,    /** & */
  23:../../libDaisy//src/daisy_pod.h ****         BUTTON_2,    /** & */
  24:../../libDaisy//src/daisy_pod.h ****         BUTTON_LAST, /** &  */
  25:../../libDaisy//src/daisy_pod.h ****     };
  26:../../libDaisy//src/daisy_pod.h **** 
  27:../../libDaisy//src/daisy_pod.h ****     /** Knobs */
  28:../../libDaisy//src/daisy_pod.h ****     enum Knob
  29:../../libDaisy//src/daisy_pod.h ****     {
ARM GAS  /var/folders/lc/nz4b4n9j0917x10rycn0nzqh0000gn/T//ccns7ZyM.s 			page 2


  30:../../libDaisy//src/daisy_pod.h ****         KNOB_1,    /** &  */
  31:../../libDaisy//src/daisy_pod.h ****         KNOB_2,    /** & */
  32:../../libDaisy//src/daisy_pod.h ****         KNOB_LAST, /** & */
  33:../../libDaisy//src/daisy_pod.h ****     };
  34:../../libDaisy//src/daisy_pod.h **** 
  35:../../libDaisy//src/daisy_pod.h ****     DaisyPod() {}
  36:../../libDaisy//src/daisy_pod.h ****     ~DaisyPod() {}
  30              		.loc 1 36 5 view -0
  31              		.cfi_startproc
  32              		@ args = 0, pretend = 0, frame = 0
  33              		@ frame_needed = 0, uses_anonymous_args = 0
  34              		@ link register save eliminated.
  35              	.LBB323:
  36              	.LBI323:
  37              		.file 2 "../../libDaisy//src/hid/midi.h"
   1:../../libDaisy//src/hid/midi.h **** #pragma once
   2:../../libDaisy//src/hid/midi.h **** #ifndef DSY_MIDI_H
   3:../../libDaisy//src/hid/midi.h **** #define DSY_MIDI_H
   4:../../libDaisy//src/hid/midi.h **** 
   5:../../libDaisy//src/hid/midi.h **** #include <stdint.h>
   6:../../libDaisy//src/hid/midi.h **** #include <stdlib.h>
   7:../../libDaisy//src/hid/midi.h **** #include <algorithm>
   8:../../libDaisy//src/hid/midi.h **** #include "per/uart.h"
   9:../../libDaisy//src/hid/midi.h **** #include "util/ringbuffer.h"
  10:../../libDaisy//src/hid/midi.h **** #include "util/FIFO.h"
  11:../../libDaisy//src/hid/midi.h **** #include "hid/midi_parser.h"
  12:../../libDaisy//src/hid/midi.h **** #include "hid/usb_midi.h"
  13:../../libDaisy//src/hid/midi.h **** #include "sys/dma.h"
  14:../../libDaisy//src/hid/midi.h **** #include "sys/system.h"
  15:../../libDaisy//src/hid/midi.h **** 
  16:../../libDaisy//src/hid/midi.h **** namespace daisy
  17:../../libDaisy//src/hid/midi.h **** {
  18:../../libDaisy//src/hid/midi.h **** /** @brief   Transport layer for sending and receiving MIDI data over UART
  19:../../libDaisy//src/hid/midi.h ****  *  @details This is the mode of communication used for TRS and DIN MIDI
  20:../../libDaisy//src/hid/midi.h ****  *           There is an additional 2kB of RAM data used within this class
  21:../../libDaisy//src/hid/midi.h ****  *           for processing bulk data from the UART peripheral
  22:../../libDaisy//src/hid/midi.h ****  *  @ingroup midi
  23:../../libDaisy//src/hid/midi.h **** */
  24:../../libDaisy//src/hid/midi.h **** class MidiUartTransport
  25:../../libDaisy//src/hid/midi.h **** {
  26:../../libDaisy//src/hid/midi.h ****   public:
  27:../../libDaisy//src/hid/midi.h ****     typedef void (*MidiRxParseCallback)(uint8_t* data,
  28:../../libDaisy//src/hid/midi.h ****                                         size_t   size,
  29:../../libDaisy//src/hid/midi.h ****                                         void*    context);
  30:../../libDaisy//src/hid/midi.h **** 
  31:../../libDaisy//src/hid/midi.h ****     MidiUartTransport() {}
  32:../../libDaisy//src/hid/midi.h ****     ~MidiUartTransport() {}
  33:../../libDaisy//src/hid/midi.h **** 
  34:../../libDaisy//src/hid/midi.h ****     /** @brief Configuration structure for UART MIDI */
  35:../../libDaisy//src/hid/midi.h ****     struct Config
  36:../../libDaisy//src/hid/midi.h ****     {
  37:../../libDaisy//src/hid/midi.h ****         UartHandler::Config::Peripheral periph;
  38:../../libDaisy//src/hid/midi.h ****         dsy_gpio_pin                    rx;
  39:../../libDaisy//src/hid/midi.h ****         dsy_gpio_pin                    tx;
  40:../../libDaisy//src/hid/midi.h **** 
  41:../../libDaisy//src/hid/midi.h ****         /** Pointer to buffer for DMA UART rx byte transfer in background.
  42:../../libDaisy//src/hid/midi.h ****          *
ARM GAS  /var/folders/lc/nz4b4n9j0917x10rycn0nzqh0000gn/T//ccns7ZyM.s 			page 3


  43:../../libDaisy//src/hid/midi.h ****          *  @details By default this uses a shared buffer in DMA_BUFFER_MEM_SECTION,
  44:../../libDaisy//src/hid/midi.h ****          *           which can only be utilized for a single UART peripheral. To
  45:../../libDaisy//src/hid/midi.h ****          *           use MIDI with multiple UART peripherals, you must provide your own
  46:../../libDaisy//src/hid/midi.h ****          *           buffer, allocated to a DMA-capable memory section.
  47:../../libDaisy//src/hid/midi.h ****          */
  48:../../libDaisy//src/hid/midi.h ****         uint8_t* rx_buffer;
  49:../../libDaisy//src/hid/midi.h **** 
  50:../../libDaisy//src/hid/midi.h ****         /** Size in bytes of rx_buffer.
  51:../../libDaisy//src/hid/midi.h ****          *
  52:../../libDaisy//src/hid/midi.h ****          *  @details This size determines the maximum Rx bytes readable by the UART in the backgrou
  53:../../libDaisy//src/hid/midi.h ****          *           By default it's set to the size of the default shared rx_buffer (256 bytes).
  54:../../libDaisy//src/hid/midi.h ****          *           While much smaller sizes can be used, data can get missed if the buffer is too
  55:../../libDaisy//src/hid/midi.h ****          */
  56:../../libDaisy//src/hid/midi.h ****         size_t rx_buffer_size;
  57:../../libDaisy//src/hid/midi.h **** 
  58:../../libDaisy//src/hid/midi.h ****         Config();
  59:../../libDaisy//src/hid/midi.h ****     };
  60:../../libDaisy//src/hid/midi.h **** 
  61:../../libDaisy//src/hid/midi.h ****     /** @brief Initialization of UART using config struct */
  62:../../libDaisy//src/hid/midi.h ****     inline void Init(Config config)
  63:../../libDaisy//src/hid/midi.h ****     {
  64:../../libDaisy//src/hid/midi.h ****         UartHandler::Config uart_config;
  65:../../libDaisy//src/hid/midi.h **** 
  66:../../libDaisy//src/hid/midi.h ****         //defaults
  67:../../libDaisy//src/hid/midi.h ****         uart_config.baudrate   = 31250;
  68:../../libDaisy//src/hid/midi.h ****         uart_config.stopbits   = UartHandler::Config::StopBits::BITS_1;
  69:../../libDaisy//src/hid/midi.h ****         uart_config.parity     = UartHandler::Config::Parity::NONE;
  70:../../libDaisy//src/hid/midi.h ****         uart_config.mode       = UartHandler::Config::Mode::TX_RX;
  71:../../libDaisy//src/hid/midi.h ****         uart_config.wordlength = UartHandler::Config::WordLength::BITS_8;
  72:../../libDaisy//src/hid/midi.h **** 
  73:../../libDaisy//src/hid/midi.h ****         //user settings
  74:../../libDaisy//src/hid/midi.h ****         uart_config.periph        = config.periph;
  75:../../libDaisy//src/hid/midi.h ****         uart_config.pin_config.rx = config.rx;
  76:../../libDaisy//src/hid/midi.h ****         uart_config.pin_config.tx = config.tx;
  77:../../libDaisy//src/hid/midi.h **** 
  78:../../libDaisy//src/hid/midi.h ****         rx_buffer      = config.rx_buffer;
  79:../../libDaisy//src/hid/midi.h ****         rx_buffer_size = config.rx_buffer_size;
  80:../../libDaisy//src/hid/midi.h **** 
  81:../../libDaisy//src/hid/midi.h ****         /** zero the buffer to ensure emptiness regardless of source memory */
  82:../../libDaisy//src/hid/midi.h ****         std::fill(rx_buffer, rx_buffer + rx_buffer_size, 0);
  83:../../libDaisy//src/hid/midi.h **** 
  84:../../libDaisy//src/hid/midi.h ****         uart_.Init(uart_config);
  85:../../libDaisy//src/hid/midi.h ****     }
  86:../../libDaisy//src/hid/midi.h **** 
  87:../../libDaisy//src/hid/midi.h ****     /** @brief Start the UART peripheral in listening mode.
  88:../../libDaisy//src/hid/midi.h ****      *  This will fill an internal data structure in the background */
  89:../../libDaisy//src/hid/midi.h ****     inline void StartRx(MidiRxParseCallback parse_callback, void* context)
  90:../../libDaisy//src/hid/midi.h ****     {
  91:../../libDaisy//src/hid/midi.h ****         parse_context_  = context;
  92:../../libDaisy//src/hid/midi.h ****         parse_callback_ = parse_callback;
  93:../../libDaisy//src/hid/midi.h ****         dsy_dma_clear_cache_for_buffer((uint8_t*)this,
  94:../../libDaisy//src/hid/midi.h ****                                        sizeof(MidiUartTransport));
  95:../../libDaisy//src/hid/midi.h ****         uart_.DmaListenStart(
  96:../../libDaisy//src/hid/midi.h ****             rx_buffer, rx_buffer_size, MidiUartTransport::rxCallback, this);
  97:../../libDaisy//src/hid/midi.h ****     }
  98:../../libDaisy//src/hid/midi.h **** 
  99:../../libDaisy//src/hid/midi.h ****     /** @brief returns whether the UART peripheral is actively listening in the background or not *
ARM GAS  /var/folders/lc/nz4b4n9j0917x10rycn0nzqh0000gn/T//ccns7ZyM.s 			page 4


 100:../../libDaisy//src/hid/midi.h ****     inline bool RxActive() { return uart_.IsListening(); }
 101:../../libDaisy//src/hid/midi.h **** 
 102:../../libDaisy//src/hid/midi.h ****     /** @brief This is a no-op for UART transport - Rx is via DMA callback with circular buffer */
 103:../../libDaisy//src/hid/midi.h ****     inline void FlushRx() {}
 104:../../libDaisy//src/hid/midi.h **** 
 105:../../libDaisy//src/hid/midi.h ****     /** @brief sends the buffer of bytes out of the UART peripheral */
 106:../../libDaisy//src/hid/midi.h ****     inline void Tx(uint8_t* buff, size_t size) { uart_.PollTx(buff, size); }
 107:../../libDaisy//src/hid/midi.h **** 
 108:../../libDaisy//src/hid/midi.h ****   private:
 109:../../libDaisy//src/hid/midi.h ****     UartHandler         uart_;
 110:../../libDaisy//src/hid/midi.h ****     uint8_t*            rx_buffer;
 111:../../libDaisy//src/hid/midi.h ****     size_t              rx_buffer_size;
 112:../../libDaisy//src/hid/midi.h ****     void*               parse_context_;
 113:../../libDaisy//src/hid/midi.h ****     MidiRxParseCallback parse_callback_;
 114:../../libDaisy//src/hid/midi.h **** 
 115:../../libDaisy//src/hid/midi.h ****     /** Static callback for Uart MIDI that occurs when
 116:../../libDaisy//src/hid/midi.h ****          *  new data is available from the peripheral.
 117:../../libDaisy//src/hid/midi.h ****          *  The new data is transferred from the peripheral to the
 118:../../libDaisy//src/hid/midi.h ****          *  MIDI instance's byte FIFO that feeds the MIDI parser.
 119:../../libDaisy//src/hid/midi.h ****          *
 120:../../libDaisy//src/hid/midi.h ****          *  TODO: Handle UartHandler errors better/at all.
 121:../../libDaisy//src/hid/midi.h ****          *  (If there is a UART error, there's not really any recovery
 122:../../libDaisy//src/hid/midi.h ****          *  option at the moment)
 123:../../libDaisy//src/hid/midi.h ****          */
 124:../../libDaisy//src/hid/midi.h ****     static void rxCallback(uint8_t*            data,
 125:../../libDaisy//src/hid/midi.h ****                            size_t              size,
 126:../../libDaisy//src/hid/midi.h ****                            void*               context,
 127:../../libDaisy//src/hid/midi.h ****                            UartHandler::Result res)
 128:../../libDaisy//src/hid/midi.h ****     {
 129:../../libDaisy//src/hid/midi.h ****         /** Read context as transport type */
 130:../../libDaisy//src/hid/midi.h ****         MidiUartTransport* transport
 131:../../libDaisy//src/hid/midi.h ****             = reinterpret_cast<MidiUartTransport*>(context);
 132:../../libDaisy//src/hid/midi.h ****         if(res == UartHandler::Result::OK)
 133:../../libDaisy//src/hid/midi.h ****         {
 134:../../libDaisy//src/hid/midi.h ****             if(transport->parse_callback_)
 135:../../libDaisy//src/hid/midi.h ****             {
 136:../../libDaisy//src/hid/midi.h ****                 transport->parse_callback_(
 137:../../libDaisy//src/hid/midi.h ****                     data, size, transport->parse_context_);
 138:../../libDaisy//src/hid/midi.h ****             }
 139:../../libDaisy//src/hid/midi.h ****         }
 140:../../libDaisy//src/hid/midi.h ****     }
 141:../../libDaisy//src/hid/midi.h **** };
 142:../../libDaisy//src/hid/midi.h **** 
 143:../../libDaisy//src/hid/midi.h **** /**
 144:../../libDaisy//src/hid/midi.h ****     @brief Simple MIDI Handler \n
 145:../../libDaisy//src/hid/midi.h ****     Parses bytes from an input into valid MidiEvents. \n
 146:../../libDaisy//src/hid/midi.h ****     The MidiEvents fill a FIFO queue that the user can pop messages from.
 147:../../libDaisy//src/hid/midi.h ****     @author shensley
 148:../../libDaisy//src/hid/midi.h ****     @date March 2020
 149:../../libDaisy//src/hid/midi.h ****     @ingroup midi
 150:../../libDaisy//src/hid/midi.h **** */
 151:../../libDaisy//src/hid/midi.h **** template <typename Transport>
 152:../../libDaisy//src/hid/midi.h **** class MidiHandler
 153:../../libDaisy//src/hid/midi.h **** {
 154:../../libDaisy//src/hid/midi.h ****   public:
 155:../../libDaisy//src/hid/midi.h ****     MidiHandler() {}
 156:../../libDaisy//src/hid/midi.h ****     ~MidiHandler() {}
ARM GAS  /var/folders/lc/nz4b4n9j0917x10rycn0nzqh0000gn/T//ccns7ZyM.s 			page 5


  38              		.loc 2 156 5 view .LVU1
  39              	.LBB324:
  40              	.LBI324:
  41              		.file 3 "../../libDaisy//src/util/FIFO.h"
   1:../../libDaisy//src/util/FIFO.h **** #pragma once
   2:../../libDaisy//src/util/FIFO.h **** 
   3:../../libDaisy//src/util/FIFO.h **** #include <stdint.h>
   4:../../libDaisy//src/util/FIFO.h **** #include <stddef.h>
   5:../../libDaisy//src/util/FIFO.h **** #include <initializer_list>
   6:../../libDaisy//src/util/FIFO.h **** 
   7:../../libDaisy//src/util/FIFO.h **** namespace daisy
   8:../../libDaisy//src/util/FIFO.h **** {
   9:../../libDaisy//src/util/FIFO.h **** /** Capacity-independent base class for FIFO. Use FIFO instead. */
  10:../../libDaisy//src/util/FIFO.h **** template <typename T>
  11:../../libDaisy//src/util/FIFO.h **** class FIFOBase
  12:../../libDaisy//src/util/FIFO.h **** {
  13:../../libDaisy//src/util/FIFO.h ****   protected:
  14:../../libDaisy//src/util/FIFO.h ****     FIFOBase(T* buffer, size_t bufferSize)
  15:../../libDaisy//src/util/FIFO.h ****     : buffer_(buffer), bufferSize_(bufferSize), bufferIn_(0), bufferOut_(0)
  16:../../libDaisy//src/util/FIFO.h ****     {
  17:../../libDaisy//src/util/FIFO.h ****     }
  18:../../libDaisy//src/util/FIFO.h **** 
  19:../../libDaisy//src/util/FIFO.h ****     FIFOBase(T* buffer, size_t bufferSize, std::initializer_list<T> valuesToAdd)
  20:../../libDaisy//src/util/FIFO.h ****     : buffer_(buffer), bufferSize_(bufferSize), bufferIn_(0), bufferOut_(0)
  21:../../libDaisy//src/util/FIFO.h ****     {
  22:../../libDaisy//src/util/FIFO.h ****         PushBack(valuesToAdd);
  23:../../libDaisy//src/util/FIFO.h ****     }
  24:../../libDaisy//src/util/FIFO.h **** 
  25:../../libDaisy//src/util/FIFO.h ****   public:
  26:../../libDaisy//src/util/FIFO.h ****     /** Copies all elements from another FIFO */
  27:../../libDaisy//src/util/FIFO.h ****     FIFOBase<T>& operator=(const FIFOBase<T>& other)
  28:../../libDaisy//src/util/FIFO.h ****     {
  29:../../libDaisy//src/util/FIFO.h ****         bufferIn_ = bufferOut_ = 0;
  30:../../libDaisy//src/util/FIFO.h ****         if(!other.IsEmpty())
  31:../../libDaisy//src/util/FIFO.h ****         {
  32:../../libDaisy//src/util/FIFO.h ****             int readPtr = other.bufferOut_;
  33:../../libDaisy//src/util/FIFO.h ****             while((readPtr != other.bufferIn_) && (bufferIn_ < bufferSize_))
  34:../../libDaisy//src/util/FIFO.h ****             {
  35:../../libDaisy//src/util/FIFO.h ****                 buffer_[bufferIn_++] = other.buffer_[readPtr++];
  36:../../libDaisy//src/util/FIFO.h ****                 if(readPtr >= other.bufferSize_)
  37:../../libDaisy//src/util/FIFO.h ****                     readPtr -= other.bufferSize_;
  38:../../libDaisy//src/util/FIFO.h ****             }
  39:../../libDaisy//src/util/FIFO.h ****         }
  40:../../libDaisy//src/util/FIFO.h ****         return *this;
  41:../../libDaisy//src/util/FIFO.h ****     }
  42:../../libDaisy//src/util/FIFO.h ****     ~FIFOBase() {}
  43:../../libDaisy//src/util/FIFO.h **** 
  44:../../libDaisy//src/util/FIFO.h ****     /** Removes all elements from the FIFO */
  45:../../libDaisy//src/util/FIFO.h ****     void Clear() { bufferIn_ = bufferOut_ = 0; }
  46:../../libDaisy//src/util/FIFO.h **** 
  47:../../libDaisy//src/util/FIFO.h ****     /** Adds an element to the back of the buffer, returning true on
  48:../../libDaisy//src/util/FIFO.h ****         success */
  49:../../libDaisy//src/util/FIFO.h ****     bool PushBack(const T& elementToAdd)
  50:../../libDaisy//src/util/FIFO.h ****     {
  51:../../libDaisy//src/util/FIFO.h ****         if(!IsFull())
  52:../../libDaisy//src/util/FIFO.h ****         {
  53:../../libDaisy//src/util/FIFO.h ****             buffer_[bufferIn_++] = elementToAdd;
ARM GAS  /var/folders/lc/nz4b4n9j0917x10rycn0nzqh0000gn/T//ccns7ZyM.s 			page 6


  54:../../libDaisy//src/util/FIFO.h ****             if(bufferIn_ >= bufferSize_)
  55:../../libDaisy//src/util/FIFO.h ****                 bufferIn_ -= bufferSize_;
  56:../../libDaisy//src/util/FIFO.h ****             return true;
  57:../../libDaisy//src/util/FIFO.h ****         }
  58:../../libDaisy//src/util/FIFO.h ****         return false;
  59:../../libDaisy//src/util/FIFO.h ****     }
  60:../../libDaisy//src/util/FIFO.h **** 
  61:../../libDaisy//src/util/FIFO.h ****     /** Adds multiple elements and returns the number of elements that were added */
  62:../../libDaisy//src/util/FIFO.h ****     int PushBack(std::initializer_list<T> valuesToAdd)
  63:../../libDaisy//src/util/FIFO.h ****     {
  64:../../libDaisy//src/util/FIFO.h ****         int numAdded = 0;
  65:../../libDaisy//src/util/FIFO.h ****         for(const auto& v : valuesToAdd)
  66:../../libDaisy//src/util/FIFO.h ****         {
  67:../../libDaisy//src/util/FIFO.h ****             if(IsFull())
  68:../../libDaisy//src/util/FIFO.h ****                 return numAdded;
  69:../../libDaisy//src/util/FIFO.h **** 
  70:../../libDaisy//src/util/FIFO.h ****             PushBack(v);
  71:../../libDaisy//src/util/FIFO.h ****             numAdded++;
  72:../../libDaisy//src/util/FIFO.h ****         }
  73:../../libDaisy//src/util/FIFO.h ****         return numAdded;
  74:../../libDaisy//src/util/FIFO.h ****     }
  75:../../libDaisy//src/util/FIFO.h **** 
  76:../../libDaisy//src/util/FIFO.h ****     /** returns a reference to the last element */
  77:../../libDaisy//src/util/FIFO.h ****     T& Back()
  78:../../libDaisy//src/util/FIFO.h ****     {
  79:../../libDaisy//src/util/FIFO.h ****         if(IsEmpty())
  80:../../libDaisy//src/util/FIFO.h ****             // invalid, but better not pass a temporary T() object as a reference...
  81:../../libDaisy//src/util/FIFO.h ****             return buffer_[0];
  82:../../libDaisy//src/util/FIFO.h ****         int idx = bufferIn_ - 1;
  83:../../libDaisy//src/util/FIFO.h ****         if(idx < 0)
  84:../../libDaisy//src/util/FIFO.h ****             idx += bufferSize_;
  85:../../libDaisy//src/util/FIFO.h ****         return buffer_[idx];
  86:../../libDaisy//src/util/FIFO.h ****     }
  87:../../libDaisy//src/util/FIFO.h **** 
  88:../../libDaisy//src/util/FIFO.h ****     /** returns a reference to the last element */
  89:../../libDaisy//src/util/FIFO.h ****     const T& Back() const
  90:../../libDaisy//src/util/FIFO.h ****     {
  91:../../libDaisy//src/util/FIFO.h ****         if(IsEmpty())
  92:../../libDaisy//src/util/FIFO.h ****             // invalid, but better not pass a temporary T() object as a reference...
  93:../../libDaisy//src/util/FIFO.h ****             return buffer_[0];
  94:../../libDaisy//src/util/FIFO.h ****         int idx = bufferIn_ - 1;
  95:../../libDaisy//src/util/FIFO.h ****         if(idx < 0)
  96:../../libDaisy//src/util/FIFO.h ****             idx += bufferSize_;
  97:../../libDaisy//src/util/FIFO.h ****         return buffer_[idx];
  98:../../libDaisy//src/util/FIFO.h ****     }
  99:../../libDaisy//src/util/FIFO.h **** 
 100:../../libDaisy//src/util/FIFO.h ****     /** removes and returns an element from the front of the buffer */
 101:../../libDaisy//src/util/FIFO.h ****     T PopFront()
 102:../../libDaisy//src/util/FIFO.h ****     {
 103:../../libDaisy//src/util/FIFO.h ****         if(IsEmpty())
 104:../../libDaisy//src/util/FIFO.h ****             return T();
 105:../../libDaisy//src/util/FIFO.h ****         else
 106:../../libDaisy//src/util/FIFO.h ****         {
 107:../../libDaisy//src/util/FIFO.h ****             const auto result = buffer_[bufferOut_];
 108:../../libDaisy//src/util/FIFO.h ****             bufferOut_++;
 109:../../libDaisy//src/util/FIFO.h ****             if(bufferOut_ >= bufferSize_)
 110:../../libDaisy//src/util/FIFO.h ****                 bufferOut_ -= bufferSize_;
ARM GAS  /var/folders/lc/nz4b4n9j0917x10rycn0nzqh0000gn/T//ccns7ZyM.s 			page 7


 111:../../libDaisy//src/util/FIFO.h ****             return result;
 112:../../libDaisy//src/util/FIFO.h ****         }
 113:../../libDaisy//src/util/FIFO.h ****     }
 114:../../libDaisy//src/util/FIFO.h **** 
 115:../../libDaisy//src/util/FIFO.h ****     /** returns a copy of the first element */
 116:../../libDaisy//src/util/FIFO.h ****     T& Front()
 117:../../libDaisy//src/util/FIFO.h ****     {
 118:../../libDaisy//src/util/FIFO.h ****         if(IsEmpty())
 119:../../libDaisy//src/util/FIFO.h ****             // invalid, but better not pass a temporary T() object as a reference...
 120:../../libDaisy//src/util/FIFO.h ****             return buffer_[0];
 121:../../libDaisy//src/util/FIFO.h ****         return buffer_[bufferOut_];
 122:../../libDaisy//src/util/FIFO.h ****     }
 123:../../libDaisy//src/util/FIFO.h **** 
 124:../../libDaisy//src/util/FIFO.h ****     /** returns a reference to the first element */
 125:../../libDaisy//src/util/FIFO.h ****     const T& Front() const
 126:../../libDaisy//src/util/FIFO.h ****     {
 127:../../libDaisy//src/util/FIFO.h ****         if(IsEmpty())
 128:../../libDaisy//src/util/FIFO.h ****             // invalid, but better not pass a temporary T() object as a reference...
 129:../../libDaisy//src/util/FIFO.h ****             return buffer_[0];
 130:../../libDaisy//src/util/FIFO.h ****         return buffer_[bufferOut_];
 131:../../libDaisy//src/util/FIFO.h ****     }
 132:../../libDaisy//src/util/FIFO.h **** 
 133:../../libDaisy//src/util/FIFO.h ****     /** Returns true if the buffer contains an element equal to the provided value */
 134:../../libDaisy//src/util/FIFO.h ****     bool Contains(const T& element)
 135:../../libDaisy//src/util/FIFO.h ****     {
 136:../../libDaisy//src/util/FIFO.h ****         auto idx = bufferOut_;
 137:../../libDaisy//src/util/FIFO.h ****         while(idx != bufferIn_)
 138:../../libDaisy//src/util/FIFO.h ****         {
 139:../../libDaisy//src/util/FIFO.h ****             if(buffer_[idx] == element)
 140:../../libDaisy//src/util/FIFO.h ****                 return true;
 141:../../libDaisy//src/util/FIFO.h ****             idx++;
 142:../../libDaisy//src/util/FIFO.h ****             if(idx >= bufferSize_)
 143:../../libDaisy//src/util/FIFO.h ****                 idx -= bufferSize_;
 144:../../libDaisy//src/util/FIFO.h ****         }
 145:../../libDaisy//src/util/FIFO.h ****         return false;
 146:../../libDaisy//src/util/FIFO.h ****     }
 147:../../libDaisy//src/util/FIFO.h **** 
 148:../../libDaisy//src/util/FIFO.h ****     /** Returns the number of elements in the buffer that are equal to the provided value */
 149:../../libDaisy//src/util/FIFO.h ****     size_t CountEqualTo(const T& element)
 150:../../libDaisy//src/util/FIFO.h ****     {
 151:../../libDaisy//src/util/FIFO.h ****         size_t result = 0;
 152:../../libDaisy//src/util/FIFO.h ****         size_t idx    = bufferOut_;
 153:../../libDaisy//src/util/FIFO.h ****         while(idx != bufferIn_)
 154:../../libDaisy//src/util/FIFO.h ****         {
 155:../../libDaisy//src/util/FIFO.h ****             if(buffer_[idx] == element)
 156:../../libDaisy//src/util/FIFO.h ****                 result++;
 157:../../libDaisy//src/util/FIFO.h ****             idx++;
 158:../../libDaisy//src/util/FIFO.h ****             if(idx >= bufferSize_)
 159:../../libDaisy//src/util/FIFO.h ****                 idx -= bufferSize_;
 160:../../libDaisy//src/util/FIFO.h ****         }
 161:../../libDaisy//src/util/FIFO.h ****         return result;
 162:../../libDaisy//src/util/FIFO.h ****     }
 163:../../libDaisy//src/util/FIFO.h **** 
 164:../../libDaisy//src/util/FIFO.h ****     /** returns true, if the buffer is empty */
 165:../../libDaisy//src/util/FIFO.h ****     bool IsEmpty() const { return bufferIn_ == bufferOut_; }
 166:../../libDaisy//src/util/FIFO.h **** 
 167:../../libDaisy//src/util/FIFO.h ****     /** returns true, if the buffer is Full */
ARM GAS  /var/folders/lc/nz4b4n9j0917x10rycn0nzqh0000gn/T//ccns7ZyM.s 			page 8


 168:../../libDaisy//src/util/FIFO.h ****     bool IsFull() const { return GetNumElements() == bufferSize_ - 1; }
 169:../../libDaisy//src/util/FIFO.h **** 
 170:../../libDaisy//src/util/FIFO.h ****     /** returns the number of elements in the buffer */
 171:../../libDaisy//src/util/FIFO.h ****     size_t GetNumElements() const
 172:../../libDaisy//src/util/FIFO.h ****     {
 173:../../libDaisy//src/util/FIFO.h ****         int32_t numElements = bufferIn_ - bufferOut_;
 174:../../libDaisy//src/util/FIFO.h ****         if(numElements < 0)
 175:../../libDaisy//src/util/FIFO.h ****             numElements += bufferSize_;
 176:../../libDaisy//src/util/FIFO.h ****         return size_t(numElements);
 177:../../libDaisy//src/util/FIFO.h ****     }
 178:../../libDaisy//src/util/FIFO.h **** 
 179:../../libDaisy//src/util/FIFO.h ****     /** inserts an element "idx" positions behind the first element and returns true if successful 
 180:../../libDaisy//src/util/FIFO.h ****     bool Insert(size_t idx, const T& element)
 181:../../libDaisy//src/util/FIFO.h ****     {
 182:../../libDaisy//src/util/FIFO.h ****         if(idx > GetNumElements())
 183:../../libDaisy//src/util/FIFO.h ****             return false;
 184:../../libDaisy//src/util/FIFO.h ****         if(IsFull())
 185:../../libDaisy//src/util/FIFO.h ****             return false;
 186:../../libDaisy//src/util/FIFO.h ****         if(idx == GetNumElements())
 187:../../libDaisy//src/util/FIFO.h ****         {
 188:../../libDaisy//src/util/FIFO.h ****             PushBack(element);
 189:../../libDaisy//src/util/FIFO.h ****             return true;
 190:../../libDaisy//src/util/FIFO.h ****         }
 191:../../libDaisy//src/util/FIFO.h ****         // copy last element
 192:../../libDaisy//src/util/FIFO.h ****         PushBack(Back());
 193:../../libDaisy//src/util/FIFO.h ****         // move remaining elements: n => n+1
 194:../../libDaisy//src/util/FIFO.h ****         for(int i = GetNumElements() - 2; i > int(idx); i--)
 195:../../libDaisy//src/util/FIFO.h ****             (*this)[i] = (*this)[i - 1];
 196:../../libDaisy//src/util/FIFO.h ****         // insert element
 197:../../libDaisy//src/util/FIFO.h ****         (*this)[idx] = element;
 198:../../libDaisy//src/util/FIFO.h ****         return true;
 199:../../libDaisy//src/util/FIFO.h ****     }
 200:../../libDaisy//src/util/FIFO.h **** 
 201:../../libDaisy//src/util/FIFO.h ****     /** removes the element "idx" positions behind the first element 
 202:../../libDaisy//src/util/FIFO.h ****      *  and returns true if successful */
 203:../../libDaisy//src/util/FIFO.h ****     bool Remove(size_t idx)
 204:../../libDaisy//src/util/FIFO.h ****     {
 205:../../libDaisy//src/util/FIFO.h ****         if(idx >= GetNumElements())
 206:../../libDaisy//src/util/FIFO.h ****             return false;
 207:../../libDaisy//src/util/FIFO.h **** 
 208:../../libDaisy//src/util/FIFO.h ****         size_t index = bufferOut_ + idx;
 209:../../libDaisy//src/util/FIFO.h ****         if(index >= bufferSize_)
 210:../../libDaisy//src/util/FIFO.h ****             index -= bufferSize_;
 211:../../libDaisy//src/util/FIFO.h ****         size_t nextIndex = index + 1;
 212:../../libDaisy//src/util/FIFO.h ****         if(nextIndex >= bufferSize_)
 213:../../libDaisy//src/util/FIFO.h ****             nextIndex -= bufferSize_;
 214:../../libDaisy//src/util/FIFO.h **** 
 215:../../libDaisy//src/util/FIFO.h ****         while(nextIndex != bufferIn_)
 216:../../libDaisy//src/util/FIFO.h ****         {
 217:../../libDaisy//src/util/FIFO.h ****             buffer_[index] = buffer_[nextIndex];
 218:../../libDaisy//src/util/FIFO.h ****             index++;
 219:../../libDaisy//src/util/FIFO.h ****             nextIndex++;
 220:../../libDaisy//src/util/FIFO.h ****             if(index >= bufferSize_)
 221:../../libDaisy//src/util/FIFO.h ****                 index -= bufferSize_;
 222:../../libDaisy//src/util/FIFO.h ****             if(nextIndex >= bufferSize_)
 223:../../libDaisy//src/util/FIFO.h ****                 nextIndex -= bufferSize_;
 224:../../libDaisy//src/util/FIFO.h ****         }
ARM GAS  /var/folders/lc/nz4b4n9j0917x10rycn0nzqh0000gn/T//ccns7ZyM.s 			page 9


 225:../../libDaisy//src/util/FIFO.h **** 
 226:../../libDaisy//src/util/FIFO.h ****         int32_t nextBufferIn = int32_t(bufferIn_) - 1;
 227:../../libDaisy//src/util/FIFO.h ****         if(nextBufferIn < 0)
 228:../../libDaisy//src/util/FIFO.h ****             nextBufferIn += bufferSize_;
 229:../../libDaisy//src/util/FIFO.h ****         bufferIn_ = size_t(nextBufferIn);
 230:../../libDaisy//src/util/FIFO.h **** 
 231:../../libDaisy//src/util/FIFO.h ****         return true;
 232:../../libDaisy//src/util/FIFO.h ****     }
 233:../../libDaisy//src/util/FIFO.h **** 
 234:../../libDaisy//src/util/FIFO.h ****     /** removes all elements from the buffer for which
 235:../../libDaisy//src/util/FIFO.h ****         (buffer(index) == element) returns true and returns the number of
 236:../../libDaisy//src/util/FIFO.h ****         elements that were removed. */
 237:../../libDaisy//src/util/FIFO.h ****     size_t RemoveAllEqualTo(const T& element)
 238:../../libDaisy//src/util/FIFO.h ****     {
 239:../../libDaisy//src/util/FIFO.h ****         size_t numRemoved = 0;
 240:../../libDaisy//src/util/FIFO.h ****         int    idx        = GetNumElements() - 1;
 241:../../libDaisy//src/util/FIFO.h ****         while(idx >= 0)
 242:../../libDaisy//src/util/FIFO.h ****         {
 243:../../libDaisy//src/util/FIFO.h ****             if((*this)[idx] == element)
 244:../../libDaisy//src/util/FIFO.h ****             {
 245:../../libDaisy//src/util/FIFO.h ****                 numRemoved++;
 246:../../libDaisy//src/util/FIFO.h ****                 Remove(idx);
 247:../../libDaisy//src/util/FIFO.h ****                 // was that the last element?
 248:../../libDaisy//src/util/FIFO.h ****                 if(idx == int(GetNumElements()) - 1)
 249:../../libDaisy//src/util/FIFO.h ****                     idx--;
 250:../../libDaisy//src/util/FIFO.h ****             }
 251:../../libDaisy//src/util/FIFO.h ****             else
 252:../../libDaisy//src/util/FIFO.h ****                 idx--;
 253:../../libDaisy//src/util/FIFO.h ****         }
 254:../../libDaisy//src/util/FIFO.h ****         return numRemoved;
 255:../../libDaisy//src/util/FIFO.h ****     }
 256:../../libDaisy//src/util/FIFO.h **** 
 257:../../libDaisy//src/util/FIFO.h ****     /** returns the element "idx" positions behind the first element */
 258:../../libDaisy//src/util/FIFO.h ****     T& operator[](size_t idx)
 259:../../libDaisy//src/util/FIFO.h ****     {
 260:../../libDaisy//src/util/FIFO.h ****         if(idx >= GetNumElements())
 261:../../libDaisy//src/util/FIFO.h ****             // invalid, but better not pass a temporary T() object as a reference...
 262:../../libDaisy//src/util/FIFO.h ****             return buffer_[0];
 263:../../libDaisy//src/util/FIFO.h **** 
 264:../../libDaisy//src/util/FIFO.h ****         size_t index = bufferOut_ + idx;
 265:../../libDaisy//src/util/FIFO.h ****         if(index >= bufferSize_)
 266:../../libDaisy//src/util/FIFO.h ****             index -= bufferSize_;
 267:../../libDaisy//src/util/FIFO.h ****         return buffer_[index];
 268:../../libDaisy//src/util/FIFO.h ****     }
 269:../../libDaisy//src/util/FIFO.h **** 
 270:../../libDaisy//src/util/FIFO.h ****     /** returns the element "idx" positions behind the first element */
 271:../../libDaisy//src/util/FIFO.h ****     const T& operator[](size_t idx) const
 272:../../libDaisy//src/util/FIFO.h ****     {
 273:../../libDaisy//src/util/FIFO.h ****         if(idx >= GetNumElements())
 274:../../libDaisy//src/util/FIFO.h ****             // invalid, but better not pass a temporary T() object as a reference...
 275:../../libDaisy//src/util/FIFO.h ****             return buffer_[0];
 276:../../libDaisy//src/util/FIFO.h **** 
 277:../../libDaisy//src/util/FIFO.h ****         size_t index = bufferOut_ + idx;
 278:../../libDaisy//src/util/FIFO.h ****         if(index >= bufferSize_)
 279:../../libDaisy//src/util/FIFO.h ****             index -= bufferSize_;
 280:../../libDaisy//src/util/FIFO.h ****         return buffer_[index];
 281:../../libDaisy//src/util/FIFO.h ****     }
ARM GAS  /var/folders/lc/nz4b4n9j0917x10rycn0nzqh0000gn/T//ccns7ZyM.s 			page 10


 282:../../libDaisy//src/util/FIFO.h **** 
 283:../../libDaisy//src/util/FIFO.h ****     /** returns the total capacity */
 284:../../libDaisy//src/util/FIFO.h ****     size_t GetCapacity() const { return bufferSize_ - 1; }
 285:../../libDaisy//src/util/FIFO.h **** 
 286:../../libDaisy//src/util/FIFO.h ****   private:
 287:../../libDaisy//src/util/FIFO.h ****     FIFOBase(const FIFOBase<T>&) {} // non copyable
 288:../../libDaisy//src/util/FIFO.h **** 
 289:../../libDaisy//src/util/FIFO.h ****   private:
 290:../../libDaisy//src/util/FIFO.h ****     T*           buffer_;
 291:../../libDaisy//src/util/FIFO.h ****     const size_t bufferSize_;
 292:../../libDaisy//src/util/FIFO.h ****     size_t       bufferIn_;
 293:../../libDaisy//src/util/FIFO.h ****     size_t       bufferOut_;
 294:../../libDaisy//src/util/FIFO.h **** };
 295:../../libDaisy//src/util/FIFO.h **** 
 296:../../libDaisy//src/util/FIFO.h **** /** A simple FIFO ring buffer with a fixed size. */
 297:../../libDaisy//src/util/FIFO.h **** template <typename T, size_t capacity>
 298:../../libDaisy//src/util/FIFO.h **** class FIFO : public FIFOBase<T>
  42              		.loc 3 298 7 view .LVU2
  43              	.LBB325:
  44              	.LBI325:
  42:../../libDaisy//src/util/FIFO.h **** 
  45              		.loc 3 42 5 view .LVU3
  42:../../libDaisy//src/util/FIFO.h **** 
  46              		.loc 3 42 5 is_stmt 0 view .LVU4
  47              	.LBE325:
  48              	.LBE324:
  49              	.LBB326:
  50              	.LBI326:
  51              		.file 4 "../../libDaisy//src/hid/midi_parser.h"
   1:../../libDaisy//src/hid/midi_parser.h **** #pragma once
   2:../../libDaisy//src/hid/midi_parser.h **** #ifndef DSY_MIDI_PARSER_H
   3:../../libDaisy//src/hid/midi_parser.h **** #define DSY_MIDI_PARSER_H
   4:../../libDaisy//src/hid/midi_parser.h **** 
   5:../../libDaisy//src/hid/midi_parser.h **** #include <stdint.h>
   6:../../libDaisy//src/hid/midi_parser.h **** #include <stdlib.h>
   7:../../libDaisy//src/hid/midi_parser.h **** #include "hid/MidiEvent.h"
   8:../../libDaisy//src/hid/midi_parser.h **** 
   9:../../libDaisy//src/hid/midi_parser.h **** namespace daisy
  10:../../libDaisy//src/hid/midi_parser.h **** {
  11:../../libDaisy//src/hid/midi_parser.h **** /** @brief   Utility class for parsing raw byte streams into MIDI messages
  12:../../libDaisy//src/hid/midi_parser.h ****  *  @details Implemented as a state machine designed to parse one byte at a time
  13:../../libDaisy//src/hid/midi_parser.h ****  *  @ingroup midi
  14:../../libDaisy//src/hid/midi_parser.h ****  */
  15:../../libDaisy//src/hid/midi_parser.h **** class MidiParser
  16:../../libDaisy//src/hid/midi_parser.h **** {
  17:../../libDaisy//src/hid/midi_parser.h ****   public:
  18:../../libDaisy//src/hid/midi_parser.h ****     MidiParser(){};
  19:../../libDaisy//src/hid/midi_parser.h ****     ~MidiParser() {}
  52              		.loc 4 19 5 is_stmt 1 view .LVU5
  53              		.loc 4 19 5 is_stmt 0 view .LVU6
  54              	.LBE326:
  55              	.LBB327:
  56              	.LBI327:
  32:../../libDaisy//src/hid/midi.h **** 
  57              		.loc 2 32 5 is_stmt 1 view .LVU7
  32:../../libDaisy//src/hid/midi.h **** 
  58              		.loc 2 32 5 is_stmt 0 view .LVU8
ARM GAS  /var/folders/lc/nz4b4n9j0917x10rycn0nzqh0000gn/T//ccns7ZyM.s 			page 11


  59              	.LBE327:
  60              	.LBE323:
  61              	.LBB328:
  62              	.LBI328:
  63              		.file 5 "../../libDaisy//src/hid/rgb_led.h"
   1:../../libDaisy//src/hid/rgb_led.h **** #pragma once
   2:../../libDaisy//src/hid/rgb_led.h **** #ifndef DSY_RGB_LED_H
   3:../../libDaisy//src/hid/rgb_led.h **** #define DSY_RGB_LED_H
   4:../../libDaisy//src/hid/rgb_led.h **** #include "hid/led.h"
   5:../../libDaisy//src/hid/rgb_led.h **** #include "util/color.h"
   6:../../libDaisy//src/hid/rgb_led.h **** 
   7:../../libDaisy//src/hid/rgb_led.h **** namespace daisy
   8:../../libDaisy//src/hid/rgb_led.h **** {
   9:../../libDaisy//src/hid/rgb_led.h **** /** @addtogroup feedback
  10:../../libDaisy//src/hid/rgb_led.h ****     @{
  11:../../libDaisy//src/hid/rgb_led.h **** */
  12:../../libDaisy//src/hid/rgb_led.h **** 
  13:../../libDaisy//src/hid/rgb_led.h **** /** 3x LEDs configured as an RGB for ease of use. */
  14:../../libDaisy//src/hid/rgb_led.h **** class RgbLed
  15:../../libDaisy//src/hid/rgb_led.h **** {
  16:../../libDaisy//src/hid/rgb_led.h ****   public:
  17:../../libDaisy//src/hid/rgb_led.h ****     RgbLed() {}
  18:../../libDaisy//src/hid/rgb_led.h ****     ~RgbLed() {}
  64              		.loc 5 18 5 is_stmt 1 view .LVU9
  65              	.LBB329:
  66              	.LBI329:
  67              		.file 6 "../../libDaisy//src/hid/led.h"
   1:../../libDaisy//src/hid/led.h **** 
   2:../../libDaisy//src/hid/led.h **** #pragma once
   3:../../libDaisy//src/hid/led.h **** #ifndef DSY_LED_H
   4:../../libDaisy//src/hid/led.h **** #define DSY_LED_H
   5:../../libDaisy//src/hid/led.h **** #include "daisy_core.h"
   6:../../libDaisy//src/hid/led.h **** #include "per/gpio.h"
   7:../../libDaisy//src/hid/led.h **** 
   8:../../libDaisy//src/hid/led.h **** /* TODO - Get this set up to work with the dev_leddriver stuff as well
   9:../../libDaisy//src/hid/led.h **** - Setup Hardware PWM for pins that have it
  10:../../libDaisy//src/hid/led.h **** */
  11:../../libDaisy//src/hid/led.h **** 
  12:../../libDaisy//src/hid/led.h **** namespace daisy
  13:../../libDaisy//src/hid/led.h **** {
  14:../../libDaisy//src/hid/led.h **** /**
  15:../../libDaisy//src/hid/led.h ****     @brief LED Class providing simple Software PWM ability, etc \n 
  16:../../libDaisy//src/hid/led.h ****     Eventually this will work with hardware PWM, and external LED Driver devices as well.
  17:../../libDaisy//src/hid/led.h ****     @author shensley
  18:../../libDaisy//src/hid/led.h ****     @date March 2020
  19:../../libDaisy//src/hid/led.h ****     @ingroup feedback
  20:../../libDaisy//src/hid/led.h **** */
  21:../../libDaisy//src/hid/led.h **** class Led
  22:../../libDaisy//src/hid/led.h **** {
  23:../../libDaisy//src/hid/led.h ****   public:
  24:../../libDaisy//src/hid/led.h ****     Led() {}
  25:../../libDaisy//src/hid/led.h ****     ~Led() {}
  68              		.loc 6 25 5 view .LVU10
  69              		.loc 6 25 5 is_stmt 0 view .LVU11
  70              	.LBE329:
  71              	.LBB330:
  72              	.LBI330:
ARM GAS  /var/folders/lc/nz4b4n9j0917x10rycn0nzqh0000gn/T//ccns7ZyM.s 			page 12


  73              		.loc 6 25 5 is_stmt 1 view .LVU12
  74              		.loc 6 25 5 is_stmt 0 view .LVU13
  75              	.LBE330:
  76              	.LBB331:
  77              	.LBI331:
  78              		.loc 6 25 5 is_stmt 1 view .LVU14
  79              		.loc 6 25 5 is_stmt 0 view .LVU15
  80              	.LBE331:
  81              	.LBE328:
  82              	.LBB332:
  83              	.LBI332:
  84              		.loc 5 18 5 is_stmt 1 view .LVU16
  85              	.LBB333:
  86              	.LBI333:
  87              		.loc 6 25 5 view .LVU17
  88              		.loc 6 25 5 is_stmt 0 view .LVU18
  89              	.LBE333:
  90              	.LBB334:
  91              	.LBI334:
  92              		.loc 6 25 5 is_stmt 1 view .LVU19
  93              		.loc 6 25 5 is_stmt 0 view .LVU20
  94              	.LBE334:
  95              	.LBB335:
  96              	.LBI335:
  97              		.loc 6 25 5 is_stmt 1 view .LVU21
  98              		.loc 6 25 5 is_stmt 0 view .LVU22
  99              	.LBE335:
 100              	.LBE332:
 101              	.LBB336:
 102              	.LBI336:
 103              		.file 7 "../../libDaisy//src/hid/switch.h"
   1:../../libDaisy//src/hid/switch.h **** #pragma once
   2:../../libDaisy//src/hid/switch.h **** #ifndef DSY_SWITCH_H
   3:../../libDaisy//src/hid/switch.h **** #define DSY_SWITCH_H
   4:../../libDaisy//src/hid/switch.h **** #include "daisy_core.h"
   5:../../libDaisy//src/hid/switch.h **** #include "per/gpio.h"
   6:../../libDaisy//src/hid/switch.h **** #include "sys/system.h"
   7:../../libDaisy//src/hid/switch.h **** 
   8:../../libDaisy//src/hid/switch.h **** namespace daisy
   9:../../libDaisy//src/hid/switch.h **** {
  10:../../libDaisy//src/hid/switch.h **** /** 
  11:../../libDaisy//src/hid/switch.h ****     Generic Class for handling momentary/latching switches \n 
  12:../../libDaisy//src/hid/switch.h ****     Inspired/influenced by Mutable Instruments (pichenettes) Switch classes
  13:../../libDaisy//src/hid/switch.h ****     @author Stephen Hensley
  14:../../libDaisy//src/hid/switch.h ****     @date December 2019
  15:../../libDaisy//src/hid/switch.h ****     @ingroup controls
  16:../../libDaisy//src/hid/switch.h **** */
  17:../../libDaisy//src/hid/switch.h **** class Switch
  18:../../libDaisy//src/hid/switch.h **** {
  19:../../libDaisy//src/hid/switch.h ****   public:
  20:../../libDaisy//src/hid/switch.h ****     /** Specifies the expected behavior of the switch */
  21:../../libDaisy//src/hid/switch.h ****     enum Type
  22:../../libDaisy//src/hid/switch.h ****     {
  23:../../libDaisy//src/hid/switch.h ****         TYPE_TOGGLE,    /**< & */
  24:../../libDaisy//src/hid/switch.h ****         TYPE_MOMENTARY, /**< & */
  25:../../libDaisy//src/hid/switch.h ****     };
  26:../../libDaisy//src/hid/switch.h ****     /** Specifies whether the pressed is HIGH or LOW. */
ARM GAS  /var/folders/lc/nz4b4n9j0917x10rycn0nzqh0000gn/T//ccns7ZyM.s 			page 13


  27:../../libDaisy//src/hid/switch.h ****     enum Polarity
  28:../../libDaisy//src/hid/switch.h ****     {
  29:../../libDaisy//src/hid/switch.h ****         POLARITY_NORMAL,   /**< & */
  30:../../libDaisy//src/hid/switch.h ****         POLARITY_INVERTED, /**< & */
  31:../../libDaisy//src/hid/switch.h ****     };
  32:../../libDaisy//src/hid/switch.h **** 
  33:../../libDaisy//src/hid/switch.h ****     /** Specifies whether to use built-in Pull Up/Down resistors to hold button at a given state wh
  34:../../libDaisy//src/hid/switch.h ****     enum Pull
  35:../../libDaisy//src/hid/switch.h ****     {
  36:../../libDaisy//src/hid/switch.h ****         PULL_UP,   /**< & */
  37:../../libDaisy//src/hid/switch.h ****         PULL_DOWN, /**< & */
  38:../../libDaisy//src/hid/switch.h ****         PULL_NONE, /**< & */
  39:../../libDaisy//src/hid/switch.h ****     };
  40:../../libDaisy//src/hid/switch.h **** 
  41:../../libDaisy//src/hid/switch.h ****     Switch() {}
  42:../../libDaisy//src/hid/switch.h ****     ~Switch() {}
 104              		.loc 7 42 5 is_stmt 1 view .LVU23
 105              		.loc 7 42 5 is_stmt 0 view .LVU24
 106              	.LBE336:
 107              	.LBB337:
 108              	.LBI337:
 109              		.loc 7 42 5 is_stmt 1 view .LVU25
 110              		.loc 7 42 5 is_stmt 0 view .LVU26
 111              	.LBE337:
 112              	.LBB338:
 113              	.LBI338:
 114              		.file 8 "../../libDaisy//src/hid/ctrl.h"
   1:../../libDaisy//src/hid/ctrl.h **** #pragma once
   2:../../libDaisy//src/hid/ctrl.h **** #ifndef DSY_KNOB_H
   3:../../libDaisy//src/hid/ctrl.h **** #define DSY_KNOB_H /**< & */
   4:../../libDaisy//src/hid/ctrl.h **** #include <stdint.h>
   5:../../libDaisy//src/hid/ctrl.h **** 
   6:../../libDaisy//src/hid/ctrl.h **** #ifdef __cplusplus
   7:../../libDaisy//src/hid/ctrl.h **** namespace daisy
   8:../../libDaisy//src/hid/ctrl.h **** {
   9:../../libDaisy//src/hid/ctrl.h **** /**
  10:../../libDaisy//src/hid/ctrl.h ****     @brief Hardware Interface for control inputs \n 
  11:../../libDaisy//src/hid/ctrl.h ****     Primarily designed for ADC input controls such as \n 
  12:../../libDaisy//src/hid/ctrl.h ****     potentiometers, and control voltage. \n 
  13:../../libDaisy//src/hid/ctrl.h ****     @author Stephen Hensley
  14:../../libDaisy//src/hid/ctrl.h ****     @date November 2019
  15:../../libDaisy//src/hid/ctrl.h ****     @ingroup controls
  16:../../libDaisy//src/hid/ctrl.h **** */
  17:../../libDaisy//src/hid/ctrl.h **** class AnalogControl
  18:../../libDaisy//src/hid/ctrl.h **** {
  19:../../libDaisy//src/hid/ctrl.h ****   public:
  20:../../libDaisy//src/hid/ctrl.h ****     /** Constructor */
  21:../../libDaisy//src/hid/ctrl.h ****     AnalogControl() {}
  22:../../libDaisy//src/hid/ctrl.h ****     /** destructor */
  23:../../libDaisy//src/hid/ctrl.h ****     ~AnalogControl() {}
 115              		.loc 8 23 5 is_stmt 1 view .LVU27
 116              		.loc 8 23 5 is_stmt 0 view .LVU28
 117              	.LBE338:
 118              	.LBB339:
 119              	.LBI339:
 120              		.loc 8 23 5 is_stmt 1 view .LVU29
 121              		.loc 8 23 5 is_stmt 0 view .LVU30
ARM GAS  /var/folders/lc/nz4b4n9j0917x10rycn0nzqh0000gn/T//ccns7ZyM.s 			page 14


 122              	.LBE339:
 123              	.LBB340:
 124              	.LBI340:
 125              		.file 9 "../../libDaisy//src/hid/encoder.h"
   1:../../libDaisy//src/hid/encoder.h **** #pragma once
   2:../../libDaisy//src/hid/encoder.h **** #ifndef DSY_ENCODER_H
   3:../../libDaisy//src/hid/encoder.h **** #define DSY_ENCODER_H
   4:../../libDaisy//src/hid/encoder.h **** #include "daisy_core.h"
   5:../../libDaisy//src/hid/encoder.h **** #include "per/gpio.h"
   6:../../libDaisy//src/hid/encoder.h **** #include "hid/switch.h"
   7:../../libDaisy//src/hid/encoder.h **** 
   8:../../libDaisy//src/hid/encoder.h **** namespace daisy
   9:../../libDaisy//src/hid/encoder.h **** {
  10:../../libDaisy//src/hid/encoder.h **** /** 
  11:../../libDaisy//src/hid/encoder.h ****     @brief Generic Class for handling Quadrature Encoders \n 
  12:../../libDaisy//src/hid/encoder.h ****     Inspired/influenced by Mutable Instruments (pichenettes) Encoder classes
  13:../../libDaisy//src/hid/encoder.h ****     @author Stephen Hensley
  14:../../libDaisy//src/hid/encoder.h ****     @date December 2019
  15:../../libDaisy//src/hid/encoder.h ****     @ingroup controls
  16:../../libDaisy//src/hid/encoder.h **** */
  17:../../libDaisy//src/hid/encoder.h **** class Encoder
  18:../../libDaisy//src/hid/encoder.h **** {
  19:../../libDaisy//src/hid/encoder.h ****   public:
  20:../../libDaisy//src/hid/encoder.h ****     Encoder() {}
  21:../../libDaisy//src/hid/encoder.h ****     ~Encoder() {}
 126              		.loc 9 21 5 is_stmt 1 view .LVU31
 127              	.LBB341:
 128              	.LBI341:
 129              		.loc 7 42 5 view .LVU32
 130              		.loc 7 42 5 is_stmt 0 view .LVU33
 131              	.LBE341:
 132              	.LBE340:
 133              	.LBB342:
 134              	.LBI342:
 135              		.file 10 "../../libDaisy//src/daisy_seed.h"
   1:../../libDaisy//src/daisy_seed.h **** #pragma once
   2:../../libDaisy//src/daisy_seed.h **** #ifndef DSY_SEED_H
   3:../../libDaisy//src/daisy_seed.h **** #define DSY_SEED_H
   4:../../libDaisy//src/daisy_seed.h **** 
   5:../../libDaisy//src/daisy_seed.h **** #include "daisy.h"
   6:../../libDaisy//src/daisy_seed.h **** 
   7:../../libDaisy//src/daisy_seed.h **** //Uncomment this out if you're still using the rev2 hardware
   8:../../libDaisy//src/daisy_seed.h **** //#define SEED_REV2
   9:../../libDaisy//src/daisy_seed.h **** 
  10:../../libDaisy//src/daisy_seed.h **** namespace daisy
  11:../../libDaisy//src/daisy_seed.h **** {
  12:../../libDaisy//src/daisy_seed.h **** /**
  13:../../libDaisy//src/daisy_seed.h ****    @brief This is the higher-level interface for the Daisy board. \n 
  14:../../libDaisy//src/daisy_seed.h ****     All basic peripheral configuration/initialization is setup here. \n
  15:../../libDaisy//src/daisy_seed.h **** 
  16:../../libDaisy//src/daisy_seed.h ****    @ingroup boards
  17:../../libDaisy//src/daisy_seed.h **** */
  18:../../libDaisy//src/daisy_seed.h **** class DaisySeed
  19:../../libDaisy//src/daisy_seed.h **** {
  20:../../libDaisy//src/daisy_seed.h ****   public:
  21:../../libDaisy//src/daisy_seed.h ****     DaisySeed() {}
  22:../../libDaisy//src/daisy_seed.h ****     ~DaisySeed() {}
ARM GAS  /var/folders/lc/nz4b4n9j0917x10rycn0nzqh0000gn/T//ccns7ZyM.s 			page 15


 136              		.loc 10 22 5 is_stmt 1 view .LVU34
 137              	.LBB343:
 138              	.LBI343:
 139              		.file 11 "../../libDaisy//src/sys/system.h"
   1:../../libDaisy//src/sys/system.h **** #ifndef DSY_SYSTEM_H
   2:../../libDaisy//src/sys/system.h **** #define DSY_SYSTEM_H
   3:../../libDaisy//src/sys/system.h **** 
   4:../../libDaisy//src/sys/system.h **** #ifndef UNIT_TEST // for unit tests, a dummy implementation is provided below
   5:../../libDaisy//src/sys/system.h **** 
   6:../../libDaisy//src/sys/system.h **** #include <cstdint>
   7:../../libDaisy//src/sys/system.h **** #include "per/tim.h"
   8:../../libDaisy//src/sys/system.h **** 
   9:../../libDaisy//src/sys/system.h **** namespace daisy
  10:../../libDaisy//src/sys/system.h **** {
  11:../../libDaisy//src/sys/system.h **** /** A handle for interacting with the Core System.
  12:../../libDaisy//src/sys/system.h ****  ** This includes the Clock tree, MPU, global DMA initialization,
  13:../../libDaisy//src/sys/system.h ****  ** cache handling, and any other necessary global initiailzation
  14:../../libDaisy//src/sys/system.h ****  **
  15:../../libDaisy//src/sys/system.h ****  ** @author shensley
  16:../../libDaisy//src/sys/system.h ****  ** @ingroup system
  17:../../libDaisy//src/sys/system.h ****  */
  18:../../libDaisy//src/sys/system.h **** class System
  19:../../libDaisy//src/sys/system.h **** {
  20:../../libDaisy//src/sys/system.h ****   public:
  21:../../libDaisy//src/sys/system.h ****     /** Contains settings for initializing the System */
  22:../../libDaisy//src/sys/system.h ****     struct Config
  23:../../libDaisy//src/sys/system.h ****     {
  24:../../libDaisy//src/sys/system.h ****         /** Specifies the system clock frequency that feeds APB/AHB clocks, etc. */
  25:../../libDaisy//src/sys/system.h ****         enum class SysClkFreq
  26:../../libDaisy//src/sys/system.h ****         {
  27:../../libDaisy//src/sys/system.h ****             FREQ_400MHZ,
  28:../../libDaisy//src/sys/system.h ****             FREQ_480MHZ,
  29:../../libDaisy//src/sys/system.h ****         };
  30:../../libDaisy//src/sys/system.h **** 
  31:../../libDaisy//src/sys/system.h ****         /** Method to call on the struct to set to defaults
  32:../../libDaisy//src/sys/system.h ****          ** CPU Freq set to 400MHz
  33:../../libDaisy//src/sys/system.h ****          ** Cache Enabled
  34:../../libDaisy//src/sys/system.h ****          ** */
  35:../../libDaisy//src/sys/system.h ****         void Defaults()
  36:../../libDaisy//src/sys/system.h ****         {
  37:../../libDaisy//src/sys/system.h ****             cpu_freq    = SysClkFreq::FREQ_400MHZ;
  38:../../libDaisy//src/sys/system.h ****             use_dcache  = true;
  39:../../libDaisy//src/sys/system.h ****             use_icache  = true;
  40:../../libDaisy//src/sys/system.h ****             skip_clocks = false;
  41:../../libDaisy//src/sys/system.h ****         }
  42:../../libDaisy//src/sys/system.h **** 
  43:../../libDaisy//src/sys/system.h ****         /** Method to call on the struct to set to boost mode:
  44:../../libDaisy//src/sys/system.h ****          ** CPU Freq set to 480MHz
  45:../../libDaisy//src/sys/system.h ****          ** Cache Enabled
  46:../../libDaisy//src/sys/system.h ****          ** */
  47:../../libDaisy//src/sys/system.h ****         void Boost()
  48:../../libDaisy//src/sys/system.h ****         {
  49:../../libDaisy//src/sys/system.h ****             cpu_freq    = SysClkFreq::FREQ_480MHZ;
  50:../../libDaisy//src/sys/system.h ****             use_dcache  = true;
  51:../../libDaisy//src/sys/system.h ****             use_icache  = true;
  52:../../libDaisy//src/sys/system.h ****             skip_clocks = false;
  53:../../libDaisy//src/sys/system.h ****         }
ARM GAS  /var/folders/lc/nz4b4n9j0917x10rycn0nzqh0000gn/T//ccns7ZyM.s 			page 16


  54:../../libDaisy//src/sys/system.h **** 
  55:../../libDaisy//src/sys/system.h ****         SysClkFreq cpu_freq;
  56:../../libDaisy//src/sys/system.h ****         bool       use_dcache;
  57:../../libDaisy//src/sys/system.h ****         bool       use_icache;
  58:../../libDaisy//src/sys/system.h ****         bool       skip_clocks;
  59:../../libDaisy//src/sys/system.h ****     };
  60:../../libDaisy//src/sys/system.h **** 
  61:../../libDaisy//src/sys/system.h ****     /** Describes the different regions of memory available to the Daisy */
  62:../../libDaisy//src/sys/system.h ****     enum MemoryRegion
  63:../../libDaisy//src/sys/system.h ****     {
  64:../../libDaisy//src/sys/system.h ****         INTERNAL_FLASH = 0,
  65:../../libDaisy//src/sys/system.h ****         ITCMRAM,
  66:../../libDaisy//src/sys/system.h ****         DTCMRAM,
  67:../../libDaisy//src/sys/system.h ****         SRAM_D1,
  68:../../libDaisy//src/sys/system.h ****         SRAM_D2,
  69:../../libDaisy//src/sys/system.h ****         SRAM_D3,
  70:../../libDaisy//src/sys/system.h ****         SDRAM,
  71:../../libDaisy//src/sys/system.h ****         QSPI,
  72:../../libDaisy//src/sys/system.h ****         INVALID_ADDRESS,
  73:../../libDaisy//src/sys/system.h ****     };
  74:../../libDaisy//src/sys/system.h **** 
  75:../../libDaisy//src/sys/system.h ****     /** Bootloader struct for controlling bootloading parameters */
  76:../../libDaisy//src/sys/system.h ****     struct BootInfo
  77:../../libDaisy//src/sys/system.h ****     {
  78:../../libDaisy//src/sys/system.h ****         enum class Type : uint32_t
  79:../../libDaisy//src/sys/system.h ****         {
  80:../../libDaisy//src/sys/system.h ****             INVALID      = 0x00000000,
  81:../../libDaisy//src/sys/system.h ****             JUMP         = 0xDEADBEEF,
  82:../../libDaisy//src/sys/system.h ****             SKIP_TIMEOUT = 0x5AFEB007,
  83:../../libDaisy//src/sys/system.h ****             INF_TIMEOUT  = 0xB0074EFA,
  84:../../libDaisy//src/sys/system.h ****         } status;
  85:../../libDaisy//src/sys/system.h ****         uint32_t data;
  86:../../libDaisy//src/sys/system.h ****         enum class Version : uint32_t
  87:../../libDaisy//src/sys/system.h ****         {
  88:../../libDaisy//src/sys/system.h ****             LT_v6_0 = 0, // Less than v6.0
  89:../../libDaisy//src/sys/system.h ****             NONE,        // No bootloader present
  90:../../libDaisy//src/sys/system.h ****             v6_0,        // v6.0
  91:../../libDaisy//src/sys/system.h ****             v6_1,        // v6.1 or greater
  92:../../libDaisy//src/sys/system.h ****             LAST
  93:../../libDaisy//src/sys/system.h ****         } version;
  94:../../libDaisy//src/sys/system.h ****     };
  95:../../libDaisy//src/sys/system.h **** 
  96:../../libDaisy//src/sys/system.h ****     System() {}
  97:../../libDaisy//src/sys/system.h ****     ~System() {}
 140              		.loc 11 97 5 view .LVU35
 141              		.loc 11 97 5 is_stmt 0 view .LVU36
 142              	.LBE343:
 143              	.LBB344:
 144              	.LBI344:
 145              		.file 12 "../../libDaisy//src/hid/usb.h"
   1:../../libDaisy//src/hid/usb.h **** #pragma once
   2:../../libDaisy//src/hid/usb.h **** #ifndef DSY_HID_USB_H
   3:../../libDaisy//src/hid/usb.h **** #define DSY_HID_USB_H
   4:../../libDaisy//src/hid/usb.h **** #include <stdint.h>
   5:../../libDaisy//src/hid/usb.h **** #include <stdlib.h>
   6:../../libDaisy//src/hid/usb.h **** 
   7:../../libDaisy//src/hid/usb.h **** namespace daisy
ARM GAS  /var/folders/lc/nz4b4n9j0917x10rycn0nzqh0000gn/T//ccns7ZyM.s 			page 17


   8:../../libDaisy//src/hid/usb.h **** /** @addtogroup human_interface
   9:../../libDaisy//src/hid/usb.h ****     @{
  10:../../libDaisy//src/hid/usb.h **** */
  11:../../libDaisy//src/hid/usb.h **** 
  12:../../libDaisy//src/hid/usb.h **** {
  13:../../libDaisy//src/hid/usb.h **** /** 
  14:../../libDaisy//src/hid/usb.h ****     @brief Interface for initializing and using the USB Peripherals on the daisy
  15:../../libDaisy//src/hid/usb.h ****     @author Stephen Hensley
  16:../../libDaisy//src/hid/usb.h ****     @date December 2019
  17:../../libDaisy//src/hid/usb.h **** */
  18:../../libDaisy//src/hid/usb.h **** class UsbHandle
  19:../../libDaisy//src/hid/usb.h **** {
  20:../../libDaisy//src/hid/usb.h ****   public:
  21:../../libDaisy//src/hid/usb.h ****     /** Return values for USBHandle Functions */
  22:../../libDaisy//src/hid/usb.h ****     enum class Result
  23:../../libDaisy//src/hid/usb.h ****     {
  24:../../libDaisy//src/hid/usb.h ****         OK,
  25:../../libDaisy//src/hid/usb.h ****         ERR,
  26:../../libDaisy//src/hid/usb.h ****     };
  27:../../libDaisy//src/hid/usb.h **** 
  28:../../libDaisy//src/hid/usb.h ****     /** Specified which of the two USB Peripherals to initialize. */
  29:../../libDaisy//src/hid/usb.h ****     enum UsbPeriph
  30:../../libDaisy//src/hid/usb.h ****     {
  31:../../libDaisy//src/hid/usb.h ****         FS_INTERNAL, /**< Internal pin */
  32:../../libDaisy//src/hid/usb.h ****         FS_EXTERNAL, /**< FS External D+ pin is Pin 38 (GPIO32). FS External D- pin is Pin 37 (GPIO
  33:../../libDaisy//src/hid/usb.h ****         FS_BOTH,     /**< Both */
  34:../../libDaisy//src/hid/usb.h ****     };
  35:../../libDaisy//src/hid/usb.h **** 
  36:../../libDaisy//src/hid/usb.h **** 
  37:../../libDaisy//src/hid/usb.h ****     /** Function called upon reception of a buffer */
  38:../../libDaisy//src/hid/usb.h ****     typedef void (*ReceiveCallback)(uint8_t* buff, uint32_t* len);
  39:../../libDaisy//src/hid/usb.h **** 
  40:../../libDaisy//src/hid/usb.h ****     UsbHandle() {}
  41:../../libDaisy//src/hid/usb.h **** 
  42:../../libDaisy//src/hid/usb.h ****     ~UsbHandle() {}
 146              		.loc 12 42 5 is_stmt 1 view .LVU37
 147              		.loc 12 42 5 is_stmt 0 view .LVU38
 148              	.LBE344:
 149              	.LBB345:
 150              	.LBI345:
 151              		.file 13 "../../libDaisy//src/per/adc.h"
   1:../../libDaisy//src/per/adc.h **** #pragma once
   2:../../libDaisy//src/per/adc.h **** #ifndef DSY_ADC_H
   3:../../libDaisy//src/per/adc.h **** #define DSY_ADC_H /**< Macro */
   4:../../libDaisy//src/per/adc.h **** #include <stdint.h>
   5:../../libDaisy//src/per/adc.h **** #include <stdlib.h>
   6:../../libDaisy//src/per/adc.h **** #include "daisy_core.h"
   7:../../libDaisy//src/per/adc.h **** #include "per/gpio.h"
   8:../../libDaisy//src/per/adc.h **** 
   9:../../libDaisy//src/per/adc.h **** #define DSY_ADC_MAX_CHANNELS 16 /**< Maximum number of ADC channels */
  10:../../libDaisy//src/per/adc.h **** 
  11:../../libDaisy//src/per/adc.h **** namespace daisy
  12:../../libDaisy//src/per/adc.h **** {
  13:../../libDaisy//src/per/adc.h **** /** @addtogroup per_analog
  14:../../libDaisy//src/per/adc.h ****     @{
  15:../../libDaisy//src/per/adc.h **** */
  16:../../libDaisy//src/per/adc.h **** 
ARM GAS  /var/folders/lc/nz4b4n9j0917x10rycn0nzqh0000gn/T//ccns7ZyM.s 			page 18


  17:../../libDaisy//src/per/adc.h **** /* While there may not be many configuration options here,
  18:../../libDaisy//src/per/adc.h **** using a struct like this allows us to add more configuration
  19:../../libDaisy//src/per/adc.h **** later without breaking existing functionality.
  20:../../libDaisy//src/per/adc.h **** */
  21:../../libDaisy//src/per/adc.h **** 
  22:../../libDaisy//src/per/adc.h **** /** @brief   Configuration Structure for an ADC Channel 
  23:../../libDaisy//src/per/adc.h ****  *  @details This can be used to configure a a single input, 
  24:../../libDaisy//src/per/adc.h ****  *           or a multiplexed input, allowing up to 8 inputs on 
  25:../../libDaisy//src/per/adc.h ****  *           one channel.
  26:../../libDaisy//src/per/adc.h ****  *  @note    Sharing data lines to multiple muxes _is_ possible, but
  27:../../libDaisy//src/per/adc.h ****  *           each channel sharing data lines must be set to the maximum
  28:../../libDaisy//src/per/adc.h ****  *           number of channels, even if some multiplexers have fewer
  29:../../libDaisy//src/per/adc.h ****  *           inputs connected.
  30:../../libDaisy//src/per/adc.h **** */
  31:../../libDaisy//src/per/adc.h **** struct AdcChannelConfig
  32:../../libDaisy//src/per/adc.h **** {
  33:../../libDaisy//src/per/adc.h ****     /** Which pin to use for multiplexing */
  34:../../libDaisy//src/per/adc.h ****     enum MuxPin
  35:../../libDaisy//src/per/adc.h ****     {
  36:../../libDaisy//src/per/adc.h ****         MUX_SEL_0,    /**< & */
  37:../../libDaisy//src/per/adc.h ****         MUX_SEL_1,    /**< & */
  38:../../libDaisy//src/per/adc.h ****         MUX_SEL_2,    /**< & */
  39:../../libDaisy//src/per/adc.h ****         MUX_SEL_LAST, /**< & */
  40:../../libDaisy//src/per/adc.h ****     };
  41:../../libDaisy//src/per/adc.h **** 
  42:../../libDaisy//src/per/adc.h ****     /** \brief per channel conversion speed added to fixed time based on bitdepth, etc. */
  43:../../libDaisy//src/per/adc.h ****     enum ConversionSpeed
  44:../../libDaisy//src/per/adc.h ****     {
  45:../../libDaisy//src/per/adc.h ****         SPEED_1CYCLES_5,
  46:../../libDaisy//src/per/adc.h ****         SPEED_2CYCLES_5,
  47:../../libDaisy//src/per/adc.h ****         SPEED_8CYCLES_5,
  48:../../libDaisy//src/per/adc.h ****         SPEED_16CYCLES_5,
  49:../../libDaisy//src/per/adc.h ****         SPEED_32CYCLES_5,
  50:../../libDaisy//src/per/adc.h ****         SPEED_64CYCLES_5,
  51:../../libDaisy//src/per/adc.h ****         SPEED_387CYCLES_5,
  52:../../libDaisy//src/per/adc.h ****         SPEED_810CYCLES_5,
  53:../../libDaisy//src/per/adc.h ****     };
  54:../../libDaisy//src/per/adc.h **** 
  55:../../libDaisy//src/per/adc.h ****     /** Initializes a single ADC pin as an ADC. 
  56:../../libDaisy//src/per/adc.h ****     \param pin Pin to init.
  57:../../libDaisy//src/per/adc.h ****     \param speed conversion speed for this pin defaults to 8.5 cycles
  58:../../libDaisy//src/per/adc.h ****      */
  59:../../libDaisy//src/per/adc.h ****     void InitSingle(dsy_gpio_pin pin, ConversionSpeed speed = SPEED_8CYCLES_5);
  60:../../libDaisy//src/per/adc.h **** 
  61:../../libDaisy//src/per/adc.h ****     /** 
  62:../../libDaisy//src/per/adc.h ****     Initializes a single ADC pin as a Multiplexed ADC.
  63:../../libDaisy//src/per/adc.h ****     Requires a CD405X Multiplexer connected to the pin.
  64:../../libDaisy//src/per/adc.h ****     You only need to supply the mux pins that are required,
  65:../../libDaisy//src/per/adc.h ****     e.g. a 4052 mux would only require mux_0 and mux_1.
  66:../../libDaisy//src/per/adc.h ****     Internal Callbacks handle the pin addressing.
  67:../../libDaisy//src/per/adc.h ****     \param adc_pin &
  68:../../libDaisy//src/per/adc.h ****     \param mux_channels must be 1-8
  69:../../libDaisy//src/per/adc.h ****     \param mux_0 First mux pin
  70:../../libDaisy//src/per/adc.h ****     \param mux_1 Second mux pin
  71:../../libDaisy//src/per/adc.h ****     \param mux_2 Third mux pin
  72:../../libDaisy//src/per/adc.h ****     \param speed conversion speed for this pin defaults to 8.5 cycles
  73:../../libDaisy//src/per/adc.h ****     */
ARM GAS  /var/folders/lc/nz4b4n9j0917x10rycn0nzqh0000gn/T//ccns7ZyM.s 			page 19


  74:../../libDaisy//src/per/adc.h ****     void InitMux(dsy_gpio_pin    adc_pin,
  75:../../libDaisy//src/per/adc.h ****                  size_t          mux_channels,
  76:../../libDaisy//src/per/adc.h ****                  dsy_gpio_pin    mux_0,
  77:../../libDaisy//src/per/adc.h ****                  dsy_gpio_pin    mux_1 = {DSY_GPIOX, 0},
  78:../../libDaisy//src/per/adc.h ****                  dsy_gpio_pin    mux_2 = {DSY_GPIOX, 0},
  79:../../libDaisy//src/per/adc.h ****                  ConversionSpeed speed = SPEED_8CYCLES_5);
  80:../../libDaisy//src/per/adc.h **** 
  81:../../libDaisy//src/per/adc.h ****     dsy_gpio        pin_;                   /**< & */
  82:../../libDaisy//src/per/adc.h ****     dsy_gpio        mux_pin_[MUX_SEL_LAST]; /**< & */
  83:../../libDaisy//src/per/adc.h ****     uint8_t         mux_channels_;          /**< & */
  84:../../libDaisy//src/per/adc.h ****     ConversionSpeed speed_;
  85:../../libDaisy//src/per/adc.h **** };
  86:../../libDaisy//src/per/adc.h **** 
  87:../../libDaisy//src/per/adc.h **** /**
  88:../../libDaisy//src/per/adc.h ****    @brief Handler for analog to digital conversion
  89:../../libDaisy//src/per/adc.h **** */
  90:../../libDaisy//src/per/adc.h **** class AdcHandle
  91:../../libDaisy//src/per/adc.h **** {
  92:../../libDaisy//src/per/adc.h ****   public:
  93:../../libDaisy//src/per/adc.h ****     /** Supported oversampling amounts */
  94:../../libDaisy//src/per/adc.h ****     enum OverSampling
  95:../../libDaisy//src/per/adc.h ****     {
  96:../../libDaisy//src/per/adc.h ****         OVS_NONE, /**< & */
  97:../../libDaisy//src/per/adc.h ****         OVS_4,    /**< & */
  98:../../libDaisy//src/per/adc.h ****         OVS_8,    /**< & */
  99:../../libDaisy//src/per/adc.h ****         OVS_16,   /**< & */
 100:../../libDaisy//src/per/adc.h ****         OVS_32,   /**< & */
 101:../../libDaisy//src/per/adc.h ****         OVS_64,   /**< & */
 102:../../libDaisy//src/per/adc.h ****         OVS_128,  /**< & */
 103:../../libDaisy//src/per/adc.h ****         OVS_256,  /**< & */
 104:../../libDaisy//src/per/adc.h ****         OVS_512,  /**< & */
 105:../../libDaisy//src/per/adc.h ****         OVS_1024, /**< & */
 106:../../libDaisy//src/per/adc.h ****         OVS_LAST, /**< & */
 107:../../libDaisy//src/per/adc.h ****     };
 108:../../libDaisy//src/per/adc.h **** 
 109:../../libDaisy//src/per/adc.h ****     AdcHandle() {}
 110:../../libDaisy//src/per/adc.h ****     ~AdcHandle() {}
 152              		.loc 13 110 5 is_stmt 1 view .LVU39
 153              		.loc 13 110 5 is_stmt 0 view .LVU40
 154              	.LBE345:
 155              	.LBB346:
 156              	.LBI346:
 157              		.file 14 "../../libDaisy//src/hid/audio.h"
   1:../../libDaisy//src/hid/audio.h **** #ifndef DSY_AUDIO_H
   2:../../libDaisy//src/hid/audio.h **** #define DSY_AUDIO_H /**< & */
   3:../../libDaisy//src/hid/audio.h **** 
   4:../../libDaisy//src/hid/audio.h **** #include "per/sai.h"
   5:../../libDaisy//src/hid/audio.h **** 
   6:../../libDaisy//src/hid/audio.h **** namespace daisy
   7:../../libDaisy//src/hid/audio.h **** {
   8:../../libDaisy//src/hid/audio.h **** /** @brief Audio Engine Handle
   9:../../libDaisy//src/hid/audio.h ****  *  @ingroup audio 
  10:../../libDaisy//src/hid/audio.h ****  *  @details This class allows for higher level access to an audio engine.
  11:../../libDaisy//src/hid/audio.h ****  *           If you're using a SOM like the DaisySeed or DaisyPatchSM (or any 
  12:../../libDaisy//src/hid/audio.h ****  *            board that includes one of those objects) then the intialization
  13:../../libDaisy//src/hid/audio.h ****  *            is already taken  care of.
  14:../../libDaisy//src/hid/audio.h ****  *           If you're setting up your own custom hardware, or need to make changes
ARM GAS  /var/folders/lc/nz4b4n9j0917x10rycn0nzqh0000gn/T//ccns7ZyM.s 			page 20


  15:../../libDaisy//src/hid/audio.h ****  *           you will have to take the following steps:
  16:../../libDaisy//src/hid/audio.h ****  *             1. Create and Initialize an SaiHandle or two depending on your requirements
  17:../../libDaisy//src/hid/audio.h ****  *             2. Initialize the Audio Handle with the desired settings and the Initialized SaiHand
  18:../../libDaisy//src/hid/audio.h ****  *             3. If the connected codec requires special configuration or initialization, do so
  19:../../libDaisy//src/hid/audio.h ****  *             4. Write a callback method using either the AudioCallback or the InterleavingAudioCa
  20:../../libDaisy//src/hid/audio.h ****  *             5. Start the Audio using one of the StartAudio function
  21:../../libDaisy//src/hid/audio.h ****  */
  22:../../libDaisy//src/hid/audio.h **** class AudioHandle
  23:../../libDaisy//src/hid/audio.h **** {
  24:../../libDaisy//src/hid/audio.h ****   public:
  25:../../libDaisy//src/hid/audio.h ****     /** Manually configurable details about the Audio Engine */
  26:../../libDaisy//src/hid/audio.h ****     /** TODO: Figure out how to get samplerate in here. */
  27:../../libDaisy//src/hid/audio.h ****     struct Config
  28:../../libDaisy//src/hid/audio.h ****     {
  29:../../libDaisy//src/hid/audio.h ****         /** number of samples to process per callback */
  30:../../libDaisy//src/hid/audio.h ****         size_t blocksize;
  31:../../libDaisy//src/hid/audio.h **** 
  32:../../libDaisy//src/hid/audio.h ****         /**< Sample rate of audio */
  33:../../libDaisy//src/hid/audio.h ****         SaiHandle::Config::SampleRate samplerate;
  34:../../libDaisy//src/hid/audio.h **** 
  35:../../libDaisy//src/hid/audio.h ****         /** factor for adjustment before and after callback for hardware that may have extra headro
  36:../../libDaisy//src/hid/audio.h ****         float postgain;
  37:../../libDaisy//src/hid/audio.h **** 
  38:../../libDaisy//src/hid/audio.h ****         /** factor for additional one-sided compensation to audio path for hardware that may
  39:../../libDaisy//src/hid/audio.h ****          *  have unequal input/output ranges
  40:../../libDaisy//src/hid/audio.h ****          */
  41:../../libDaisy//src/hid/audio.h ****         float output_compensation;
  42:../../libDaisy//src/hid/audio.h **** 
  43:../../libDaisy//src/hid/audio.h ****         /** Sets default values for config struct */
  44:../../libDaisy//src/hid/audio.h ****         Config()
  45:../../libDaisy//src/hid/audio.h ****         : blocksize(48),
  46:../../libDaisy//src/hid/audio.h ****           samplerate(SaiHandle::Config::SampleRate::SAI_48KHZ),
  47:../../libDaisy//src/hid/audio.h ****           postgain(1.f),
  48:../../libDaisy//src/hid/audio.h ****           output_compensation(1.f)
  49:../../libDaisy//src/hid/audio.h ****         {
  50:../../libDaisy//src/hid/audio.h ****         }
  51:../../libDaisy//src/hid/audio.h ****     };
  52:../../libDaisy//src/hid/audio.h **** 
  53:../../libDaisy//src/hid/audio.h ****     enum class Result
  54:../../libDaisy//src/hid/audio.h ****     {
  55:../../libDaisy//src/hid/audio.h ****         OK,
  56:../../libDaisy//src/hid/audio.h ****         ERR,
  57:../../libDaisy//src/hid/audio.h ****     };
  58:../../libDaisy//src/hid/audio.h **** 
  59:../../libDaisy//src/hid/audio.h ****     /** Non-Interleaving input buffer
  60:../../libDaisy//src/hid/audio.h ****      * Buffer arranged by float[chn][sample] 
  61:../../libDaisy//src/hid/audio.h ****      * const so that the user can't modify the input
  62:../../libDaisy//src/hid/audio.h ****      */
  63:../../libDaisy//src/hid/audio.h ****     typedef const float* const* InputBuffer;
  64:../../libDaisy//src/hid/audio.h **** 
  65:../../libDaisy//src/hid/audio.h ****     /** Non-Interleaving output buffer
  66:../../libDaisy//src/hid/audio.h ****      * Arranged by float[chn][sample] 
  67:../../libDaisy//src/hid/audio.h ****      */
  68:../../libDaisy//src/hid/audio.h ****     typedef float** OutputBuffer;
  69:../../libDaisy//src/hid/audio.h **** 
  70:../../libDaisy//src/hid/audio.h ****     /** Type for a Non-Interleaving audio callback 
  71:../../libDaisy//src/hid/audio.h ****      * Non-Interleaving audio callbacks in daisy will be of this type
ARM GAS  /var/folders/lc/nz4b4n9j0917x10rycn0nzqh0000gn/T//ccns7ZyM.s 			page 21


  72:../../libDaisy//src/hid/audio.h ****      */
  73:../../libDaisy//src/hid/audio.h ****     typedef void (*AudioCallback)(InputBuffer  in,
  74:../../libDaisy//src/hid/audio.h ****                                   OutputBuffer out,
  75:../../libDaisy//src/hid/audio.h ****                                   size_t       size);
  76:../../libDaisy//src/hid/audio.h **** 
  77:../../libDaisy//src/hid/audio.h ****     /** Interleaving Input buffer
  78:../../libDaisy//src/hid/audio.h ****      ** audio is prepared as { L0, R0, L1, R1, . . . LN, RN }]
  79:../../libDaisy//src/hid/audio.h ****      ** this is const, as the user shouldn't modify it
  80:../../libDaisy//src/hid/audio.h ****     */
  81:../../libDaisy//src/hid/audio.h ****     typedef const float* InterleavingInputBuffer;
  82:../../libDaisy//src/hid/audio.h **** 
  83:../../libDaisy//src/hid/audio.h ****     /** Interleaving Output buffer 
  84:../../libDaisy//src/hid/audio.h ****      ** audio is prepared as { L0, R0, L1, R1, . . . LN, RN }
  85:../../libDaisy//src/hid/audio.h ****     */
  86:../../libDaisy//src/hid/audio.h ****     typedef float* InterleavingOutputBuffer;
  87:../../libDaisy//src/hid/audio.h **** 
  88:../../libDaisy//src/hid/audio.h ****     /** Interleaving Audio Callback 
  89:../../libDaisy//src/hid/audio.h ****      * Interleaving audio callbacks in daisy must be of this type
  90:../../libDaisy//src/hid/audio.h ****      */
  91:../../libDaisy//src/hid/audio.h ****     typedef void (*InterleavingAudioCallback)(InterleavingInputBuffer  in,
  92:../../libDaisy//src/hid/audio.h ****                                               InterleavingOutputBuffer out,
  93:../../libDaisy//src/hid/audio.h ****                                               size_t                   size);
  94:../../libDaisy//src/hid/audio.h **** 
  95:../../libDaisy//src/hid/audio.h ****     AudioHandle() : pimpl_(nullptr) {}
  96:../../libDaisy//src/hid/audio.h ****     ~AudioHandle() {}
 158              		.loc 14 96 5 is_stmt 1 view .LVU41
 159              		.loc 14 96 5 is_stmt 0 view .LVU42
 160              	.LBE346:
 161              	.LBE342:
 162              		.loc 1 36 18 view .LVU43
 163 0000 7047     		bx	lr
 164              		.cfi_endproc
 165              	.LFE2565:
 167              		.weak	_ZN5daisy8DaisyPodD1Ev
 168              		.thumb_set _ZN5daisy8DaisyPodD1Ev,_ZN5daisy8DaisyPodD2Ev
 169 0002 00BF     		.section	.text._ZN7daisysp4AdsrD2Ev,"axG",%progbits,_ZN7daisysp4AdsrD5Ev,comdat
 170              		.align	1
 171              		.p2align 2,,3
 172              		.weak	_ZN7daisysp4AdsrD2Ev
 173              		.syntax unified
 174              		.thumb
 175              		.thumb_func
 177              	_ZN7daisysp4AdsrD2Ev:
 178              	.LVL1:
 179              	.LFB2586:
 180              		.file 15 "../../DaisySP//Source/Control/adsr.h"
   1:../../DaisySP//Source/Control/adsr.h **** /*
   2:../../DaisySP//Source/Control/adsr.h **** Copyright (c) 2020 Electrosmith, Corp, Paul Batchelor
   3:../../DaisySP//Source/Control/adsr.h **** 
   4:../../DaisySP//Source/Control/adsr.h **** Use of this source code is governed by an MIT-style
   5:../../DaisySP//Source/Control/adsr.h **** license that can be found in the LICENSE file or at
   6:../../DaisySP//Source/Control/adsr.h **** https://opensource.org/licenses/MIT.
   7:../../DaisySP//Source/Control/adsr.h **** */
   8:../../DaisySP//Source/Control/adsr.h **** 
   9:../../DaisySP//Source/Control/adsr.h **** #pragma once
  10:../../DaisySP//Source/Control/adsr.h **** #ifndef DSY_ADSR_H
  11:../../DaisySP//Source/Control/adsr.h **** #define DSY_ADSR_H
ARM GAS  /var/folders/lc/nz4b4n9j0917x10rycn0nzqh0000gn/T//ccns7ZyM.s 			page 22


  12:../../DaisySP//Source/Control/adsr.h **** 
  13:../../DaisySP//Source/Control/adsr.h **** #include <stdint.h>
  14:../../DaisySP//Source/Control/adsr.h **** #ifdef __cplusplus
  15:../../DaisySP//Source/Control/adsr.h **** 
  16:../../DaisySP//Source/Control/adsr.h **** namespace daisysp
  17:../../DaisySP//Source/Control/adsr.h **** {
  18:../../DaisySP//Source/Control/adsr.h **** /** Distinct stages that the phase of the envelope can be located in.
  19:../../DaisySP//Source/Control/adsr.h **** - IDLE   = located at phase location 0, and not currently running
  20:../../DaisySP//Source/Control/adsr.h **** - ATTACK  = First segment of envelope where phase moves from 0 to 1
  21:../../DaisySP//Source/Control/adsr.h **** - DECAY   = Second segment of envelope where phase moves from 1 to SUSTAIN value
  22:../../DaisySP//Source/Control/adsr.h **** - RELEASE =     Fourth segment of envelop where phase moves from SUSTAIN to 0
  23:../../DaisySP//Source/Control/adsr.h **** */
  24:../../DaisySP//Source/Control/adsr.h **** enum
  25:../../DaisySP//Source/Control/adsr.h **** {
  26:../../DaisySP//Source/Control/adsr.h ****     ADSR_SEG_IDLE    = 0,
  27:../../DaisySP//Source/Control/adsr.h ****     ADSR_SEG_ATTACK  = 1,
  28:../../DaisySP//Source/Control/adsr.h ****     ADSR_SEG_DECAY   = 2,
  29:../../DaisySP//Source/Control/adsr.h ****     ADSR_SEG_RELEASE = 4
  30:../../DaisySP//Source/Control/adsr.h **** };
  31:../../DaisySP//Source/Control/adsr.h **** 
  32:../../DaisySP//Source/Control/adsr.h **** 
  33:../../DaisySP//Source/Control/adsr.h **** /** adsr envelope module
  34:../../DaisySP//Source/Control/adsr.h **** 
  35:../../DaisySP//Source/Control/adsr.h **** Original author(s) : Paul Batchelor
  36:../../DaisySP//Source/Control/adsr.h **** 
  37:../../DaisySP//Source/Control/adsr.h **** Ported from Soundpipe by Ben Sergentanis, May 2020
  38:../../DaisySP//Source/Control/adsr.h ****  
  39:../../DaisySP//Source/Control/adsr.h **** Remake by Steffan DIedrichsen, May 2021
  40:../../DaisySP//Source/Control/adsr.h **** */
  41:../../DaisySP//Source/Control/adsr.h **** class Adsr
  42:../../DaisySP//Source/Control/adsr.h **** {
  43:../../DaisySP//Source/Control/adsr.h ****   public:
  44:../../DaisySP//Source/Control/adsr.h ****     Adsr() {}
  45:../../DaisySP//Source/Control/adsr.h ****     ~Adsr() {}
 181              		.loc 15 45 5 is_stmt 1 view -0
 182              		.cfi_startproc
 183              		@ args = 0, pretend = 0, frame = 0
 184              		@ frame_needed = 0, uses_anonymous_args = 0
 185              		@ link register save eliminated.
 186              		.loc 15 45 14 is_stmt 0 view .LVU45
 187 0000 7047     		bx	lr
 188              		.cfi_endproc
 189              	.LFE2586:
 191              		.weak	_ZN7daisysp4AdsrD1Ev
 192              		.thumb_set _ZN7daisysp4AdsrD1Ev,_ZN7daisysp4AdsrD2Ev
 193 0002 00BF     		.section	.text._ZN7daisysp10OscillatorD2Ev,"axG",%progbits,_ZN7daisysp10OscillatorD5Ev,comdat
 194              		.align	1
 195              		.p2align 2,,3
 196              		.weak	_ZN7daisysp10OscillatorD2Ev
 197              		.syntax unified
 198              		.thumb
 199              		.thumb_func
 201              	_ZN7daisysp10OscillatorD2Ev:
 202              	.LVL2:
 203              	.LFB4248:
 204              		.file 16 "../../DaisySP//Source/Synthesis/oscillator.h"
   1:../../DaisySP//Source/Synthesis/oscillator.h **** /*
ARM GAS  /var/folders/lc/nz4b4n9j0917x10rycn0nzqh0000gn/T//ccns7ZyM.s 			page 23


   2:../../DaisySP//Source/Synthesis/oscillator.h **** Copyright (c) 2020 Electrosmith, Corp
   3:../../DaisySP//Source/Synthesis/oscillator.h **** 
   4:../../DaisySP//Source/Synthesis/oscillator.h **** Use of this source code is governed by an MIT-style
   5:../../DaisySP//Source/Synthesis/oscillator.h **** license that can be found in the LICENSE file or at
   6:../../DaisySP//Source/Synthesis/oscillator.h **** https://opensource.org/licenses/MIT.
   7:../../DaisySP//Source/Synthesis/oscillator.h **** */
   8:../../DaisySP//Source/Synthesis/oscillator.h **** 
   9:../../DaisySP//Source/Synthesis/oscillator.h **** #pragma once
  10:../../DaisySP//Source/Synthesis/oscillator.h **** #ifndef DSY_OSCILLATOR_H
  11:../../DaisySP//Source/Synthesis/oscillator.h **** #define DSY_OSCILLATOR_H
  12:../../DaisySP//Source/Synthesis/oscillator.h **** #include <stdint.h>
  13:../../DaisySP//Source/Synthesis/oscillator.h **** #include "Utility/dsp.h"
  14:../../DaisySP//Source/Synthesis/oscillator.h **** #ifdef __cplusplus
  15:../../DaisySP//Source/Synthesis/oscillator.h **** 
  16:../../DaisySP//Source/Synthesis/oscillator.h **** namespace daisysp
  17:../../DaisySP//Source/Synthesis/oscillator.h **** {
  18:../../DaisySP//Source/Synthesis/oscillator.h **** /** Synthesis of several waveforms, including polyBLEP bandlimited waveforms.
  19:../../DaisySP//Source/Synthesis/oscillator.h **** */
  20:../../DaisySP//Source/Synthesis/oscillator.h **** class Oscillator
  21:../../DaisySP//Source/Synthesis/oscillator.h **** {
  22:../../DaisySP//Source/Synthesis/oscillator.h ****   public:
  23:../../DaisySP//Source/Synthesis/oscillator.h ****     Oscillator() {}
  24:../../DaisySP//Source/Synthesis/oscillator.h ****     ~Oscillator() {}
 205              		.loc 16 24 5 is_stmt 1 view -0
 206              		.cfi_startproc
 207              		@ args = 0, pretend = 0, frame = 0
 208              		@ frame_needed = 0, uses_anonymous_args = 0
 209              		@ link register save eliminated.
 210              		.loc 16 24 20 is_stmt 0 view .LVU47
 211 0000 7047     		bx	lr
 212              		.cfi_endproc
 213              	.LFE4248:
 215              		.weak	_ZN7daisysp10OscillatorD1Ev
 216              		.thumb_set _ZN7daisysp10OscillatorD1Ev,_ZN7daisysp10OscillatorD2Ev
 217 0002 00BF     		.section	.text._ZN7daisysp10MoogLadderD2Ev,"axG",%progbits,_ZN7daisysp10MoogLadderD5Ev,comdat
 218              		.align	1
 219              		.p2align 2,,3
 220              		.weak	_ZN7daisysp10MoogLadderD2Ev
 221              		.syntax unified
 222              		.thumb
 223              		.thumb_func
 225              	_ZN7daisysp10MoogLadderD2Ev:
 226              	.LVL3:
 227              	.LFB4793:
 228              		.file 17 "../../DaisySP//DaisySP-LGPL/Source/Filters/moogladder.h"
   1:../../DaisySP//DaisySP-LGPL/Source/Filters/moogladder.h **** /*
   2:../../DaisySP//DaisySP-LGPL/Source/Filters/moogladder.h **** Copyright (c) 2023 Electrosmith, Corp, Victor Lazzarini, John ffitch (fast tanh), Bob Moog
   3:../../DaisySP//DaisySP-LGPL/Source/Filters/moogladder.h **** 
   4:../../DaisySP//DaisySP-LGPL/Source/Filters/moogladder.h **** Use of this source code is governed by the LGPL V2.1
   5:../../DaisySP//DaisySP-LGPL/Source/Filters/moogladder.h **** license that can be found in the LICENSE file or at
   6:../../DaisySP//DaisySP-LGPL/Source/Filters/moogladder.h **** https://opensource.org/license/lgpl-2-1/
   7:../../DaisySP//DaisySP-LGPL/Source/Filters/moogladder.h **** */
   8:../../DaisySP//DaisySP-LGPL/Source/Filters/moogladder.h **** 
   9:../../DaisySP//DaisySP-LGPL/Source/Filters/moogladder.h **** #pragma once
  10:../../DaisySP//DaisySP-LGPL/Source/Filters/moogladder.h **** #ifndef DSY_MOOGLADDER_H
  11:../../DaisySP//DaisySP-LGPL/Source/Filters/moogladder.h **** #define DSY_MOOGLADDER_H
  12:../../DaisySP//DaisySP-LGPL/Source/Filters/moogladder.h **** 
ARM GAS  /var/folders/lc/nz4b4n9j0917x10rycn0nzqh0000gn/T//ccns7ZyM.s 			page 24


  13:../../DaisySP//DaisySP-LGPL/Source/Filters/moogladder.h **** #include <stdint.h>
  14:../../DaisySP//DaisySP-LGPL/Source/Filters/moogladder.h **** #ifdef __cplusplus
  15:../../DaisySP//DaisySP-LGPL/Source/Filters/moogladder.h **** 
  16:../../DaisySP//DaisySP-LGPL/Source/Filters/moogladder.h **** namespace daisysp
  17:../../DaisySP//DaisySP-LGPL/Source/Filters/moogladder.h **** {
  18:../../DaisySP//DaisySP-LGPL/Source/Filters/moogladder.h **** /** Moog ladder filter module*/
  19:../../DaisySP//DaisySP-LGPL/Source/Filters/moogladder.h **** class MoogLadder
  20:../../DaisySP//DaisySP-LGPL/Source/Filters/moogladder.h **** {
  21:../../DaisySP//DaisySP-LGPL/Source/Filters/moogladder.h ****   public:
  22:../../DaisySP//DaisySP-LGPL/Source/Filters/moogladder.h ****     MoogLadder() {}
  23:../../DaisySP//DaisySP-LGPL/Source/Filters/moogladder.h ****     ~MoogLadder() {}
 229              		.loc 17 23 5 is_stmt 1 view -0
 230              		.cfi_startproc
 231              		@ args = 0, pretend = 0, frame = 0
 232              		@ frame_needed = 0, uses_anonymous_args = 0
 233              		@ link register save eliminated.
 234              		.loc 17 23 20 is_stmt 0 view .LVU49
 235 0000 7047     		bx	lr
 236              		.cfi_endproc
 237              	.LFE4793:
 239              		.weak	_ZN7daisysp10MoogLadderD1Ev
 240              		.thumb_set _ZN7daisysp10MoogLadderD1Ev,_ZN7daisysp10MoogLadderD2Ev
 241 0002 00BF     		.section	.text._Z13AudioCallbackPKPKfPPfj,"ax",%progbits
 242              		.align	1
 243              		.p2align 2,,3
 244              		.global	_Z13AudioCallbackPKPKfPPfj
 245              		.syntax unified
 246              		.thumb
 247              		.thumb_func
 249              	_Z13AudioCallbackPKPKfPPfj:
 250              	.LVL4:
 251              	.LFB4854:
 252              		.file 18 "SynthWithMoogLadder.cpp"
   1:SynthWithMoogLadder.cpp **** #include "daisy_pod.h"
   2:SynthWithMoogLadder.cpp **** #include "daisysp.h"
   3:SynthWithMoogLadder.cpp **** 
   4:SynthWithMoogLadder.cpp **** using namespace daisy;
   5:SynthWithMoogLadder.cpp **** using namespace daisysp;
   6:SynthWithMoogLadder.cpp **** 
   7:SynthWithMoogLadder.cpp **** DaisyPod pod;
   8:SynthWithMoogLadder.cpp **** Oscillator osc;
   9:SynthWithMoogLadder.cpp **** MoogLadder flt;
  10:SynthWithMoogLadder.cpp **** Adsr env;
  11:SynthWithMoogLadder.cpp **** bool gate = false;
  12:SynthWithMoogLadder.cpp **** 
  13:SynthWithMoogLadder.cpp **** void AudioCallback(AudioHandle::InputBuffer in, AudioHandle::OutputBuffer out, size_t size)
  14:SynthWithMoogLadder.cpp **** 
  15:SynthWithMoogLadder.cpp **** {
 253              		.loc 18 15 1 is_stmt 1 view -0
 254              		.cfi_startproc
 255              		@ args = 0, pretend = 0, frame = 0
 256              		@ frame_needed = 0, uses_anonymous_args = 0
  16:SynthWithMoogLadder.cpp **** 
  17:SynthWithMoogLadder.cpp ****     pod.ProcessAllControls();
 257              		.loc 18 17 5 view .LVU51
 258              	.LBB347:
 259              	.LBI347:
ARM GAS  /var/folders/lc/nz4b4n9j0917x10rycn0nzqh0000gn/T//ccns7ZyM.s 			page 25


  37:../../libDaisy//src/daisy_pod.h **** 
  38:../../libDaisy//src/daisy_pod.h ****     /** Init related stuff. */
  39:../../libDaisy//src/daisy_pod.h ****     void Init(bool boost = false);
  40:../../libDaisy//src/daisy_pod.h **** 
  41:../../libDaisy//src/daisy_pod.h ****     /** Wait for a bit
  42:../../libDaisy//src/daisy_pod.h ****     \param del Time to wait in ms.
  43:../../libDaisy//src/daisy_pod.h ****     */
  44:../../libDaisy//src/daisy_pod.h ****     void DelayMs(size_t del);
  45:../../libDaisy//src/daisy_pod.h **** 
  46:../../libDaisy//src/daisy_pod.h ****     /** Starts the callback
  47:../../libDaisy//src/daisy_pod.h ****     \param cb Interleaved callback function
  48:../../libDaisy//src/daisy_pod.h ****     */
  49:../../libDaisy//src/daisy_pod.h ****     void StartAudio(AudioHandle::InterleavingAudioCallback cb);
  50:../../libDaisy//src/daisy_pod.h **** 
  51:../../libDaisy//src/daisy_pod.h ****     /** Starts the callback
  52:../../libDaisy//src/daisy_pod.h ****     \param cb multichannel callback function
  53:../../libDaisy//src/daisy_pod.h ****     */
  54:../../libDaisy//src/daisy_pod.h ****     void StartAudio(AudioHandle::AudioCallback cb);
  55:../../libDaisy//src/daisy_pod.h **** 
  56:../../libDaisy//src/daisy_pod.h ****     /**
  57:../../libDaisy//src/daisy_pod.h ****        Switch callback functions
  58:../../libDaisy//src/daisy_pod.h ****        \param cb New interleaved callback function.
  59:../../libDaisy//src/daisy_pod.h ****     */
  60:../../libDaisy//src/daisy_pod.h ****     void ChangeAudioCallback(AudioHandle::InterleavingAudioCallback cb);
  61:../../libDaisy//src/daisy_pod.h **** 
  62:../../libDaisy//src/daisy_pod.h ****     /**
  63:../../libDaisy//src/daisy_pod.h ****        Switch callback functions
  64:../../libDaisy//src/daisy_pod.h ****        \param cb New multichannel callback function.
  65:../../libDaisy//src/daisy_pod.h ****     */
  66:../../libDaisy//src/daisy_pod.h ****     void ChangeAudioCallback(AudioHandle::AudioCallback cb);
  67:../../libDaisy//src/daisy_pod.h **** 
  68:../../libDaisy//src/daisy_pod.h ****     /** Stops the audio if it is running. */
  69:../../libDaisy//src/daisy_pod.h ****     void StopAudio();
  70:../../libDaisy//src/daisy_pod.h **** 
  71:../../libDaisy//src/daisy_pod.h ****     /** Updates the Audio Sample Rate, and reinitializes.
  72:../../libDaisy//src/daisy_pod.h ****      ** Audio must be stopped for this to work.
  73:../../libDaisy//src/daisy_pod.h ****      */
  74:../../libDaisy//src/daisy_pod.h ****     void SetAudioSampleRate(SaiHandle::Config::SampleRate samplerate);
  75:../../libDaisy//src/daisy_pod.h **** 
  76:../../libDaisy//src/daisy_pod.h ****     /** Returns the audio sample rate in Hz as a floating point number.
  77:../../libDaisy//src/daisy_pod.h ****      */
  78:../../libDaisy//src/daisy_pod.h ****     float AudioSampleRate();
  79:../../libDaisy//src/daisy_pod.h **** 
  80:../../libDaisy//src/daisy_pod.h ****     /** Sets the number of samples processed per channel by the audio callback.
  81:../../libDaisy//src/daisy_pod.h ****      */
  82:../../libDaisy//src/daisy_pod.h ****     void SetAudioBlockSize(size_t blocksize);
  83:../../libDaisy//src/daisy_pod.h **** 
  84:../../libDaisy//src/daisy_pod.h ****     /** Returns the number of samples per channel in a block of audio. */
  85:../../libDaisy//src/daisy_pod.h ****     size_t AudioBlockSize();
  86:../../libDaisy//src/daisy_pod.h **** 
  87:../../libDaisy//src/daisy_pod.h ****     /** Returns the rate in Hz that the Audio callback is called */
  88:../../libDaisy//src/daisy_pod.h ****     float AudioCallbackRate();
  89:../../libDaisy//src/daisy_pod.h **** 
  90:../../libDaisy//src/daisy_pod.h ****     /**
  91:../../libDaisy//src/daisy_pod.h ****        Start analog to digital conversion.
  92:../../libDaisy//src/daisy_pod.h ****      */
  93:../../libDaisy//src/daisy_pod.h ****     void StartAdc();
ARM GAS  /var/folders/lc/nz4b4n9j0917x10rycn0nzqh0000gn/T//ccns7ZyM.s 			page 26


  94:../../libDaisy//src/daisy_pod.h **** 
  95:../../libDaisy//src/daisy_pod.h ****     /** Stops Transfering data from the ADC */
  96:../../libDaisy//src/daisy_pod.h ****     void StopAdc();
  97:../../libDaisy//src/daisy_pod.h **** 
  98:../../libDaisy//src/daisy_pod.h ****     /** Call at same rate as analog reads for smooth reading.*/
  99:../../libDaisy//src/daisy_pod.h ****     void ProcessAnalogControls();
 100:../../libDaisy//src/daisy_pod.h **** 
 101:../../libDaisy//src/daisy_pod.h ****     /** Process Analog and Digital Controls */
 102:../../libDaisy//src/daisy_pod.h ****     inline void ProcessAllControls()
 260              		.loc 1 102 17 view .LVU52
 261              	.LBB348:
 103:../../libDaisy//src/daisy_pod.h ****     {
 104:../../libDaisy//src/daisy_pod.h ****         ProcessAnalogControls();
 262              		.loc 1 104 9 view .LVU53
 263              	.LBE348:
 264              	.LBE347:
  15:SynthWithMoogLadder.cpp **** 
 265              		.loc 18 15 1 is_stmt 0 view .LVU54
 266 0000 F8B5     		push	{r3, r4, r5, r6, r7, lr}
 267              		.cfi_def_cfa_offset 24
 268              		.cfi_offset 3, -24
 269              		.cfi_offset 4, -20
 270              		.cfi_offset 5, -16
 271              		.cfi_offset 6, -12
 272              		.cfi_offset 7, -8
 273              		.cfi_offset 14, -4
 274              	.LBB352:
 275              	.LBB349:
 276              		.loc 1 104 30 view .LVU55
 277 0002 3A4C     		ldr	r4, .L23
 278              	.LBE349:
 279              	.LBE352:
  15:SynthWithMoogLadder.cpp **** 
 280              		.loc 18 15 1 view .LVU56
 281 0004 0D46     		mov	r5, r1
 282 0006 1646     		mov	r6, r2
 283              	.LBB353:
 284              	.LBB350:
 285              		.loc 1 104 30 view .LVU57
 286 0008 2046     		mov	r0, r4
 287              	.LVL5:
 288              		.loc 1 104 30 view .LVU58
 289              	.LBE350:
 290              	.LBE353:
  15:SynthWithMoogLadder.cpp **** 
 291              		.loc 18 15 1 view .LVU59
 292 000a 2DED048B 		vpush.64	{d8, d9}
 293              		.cfi_def_cfa_offset 40
 294              		.cfi_offset 80, -40
 295              		.cfi_offset 81, -36
 296              		.cfi_offset 82, -32
 297              		.cfi_offset 83, -28
 298              	.LBB354:
 299              	.LBB351:
 300              		.loc 1 104 30 view .LVU60
 301 000e FFF7FEFF 		bl	_ZN5daisy8DaisyPod21ProcessAnalogControlsEv
 302              	.LVL6:
ARM GAS  /var/folders/lc/nz4b4n9j0917x10rycn0nzqh0000gn/T//ccns7ZyM.s 			page 27


 105:../../libDaisy//src/daisy_pod.h ****         ProcessDigitalControls();
 303              		.loc 1 105 9 is_stmt 1 view .LVU61
 304              		.loc 1 105 31 is_stmt 0 view .LVU62
 305 0012 2046     		mov	r0, r4
 306 0014 FFF7FEFF 		bl	_ZN5daisy8DaisyPod22ProcessDigitalControlsEv
 307              	.LVL7:
 308              		.loc 1 105 31 view .LVU63
 309              	.LBE351:
 310              	.LBE354:
  18:SynthWithMoogLadder.cpp **** 
  19:SynthWithMoogLadder.cpp ****     float freq_param = pod.knob1.Process() * 1000.0f + 40.0f;
 311              		.loc 18 19 5 is_stmt 1 view .LVU64
 312              		.loc 18 19 41 is_stmt 0 view .LVU65
 313 0018 04F16800 		add	r0, r4, #104
 314 001c FFF7FEFF 		bl	_ZN5daisy13AnalogControl7ProcessEv
 315              	.LVL8:
 316              		.loc 18 19 56 view .LVU66
 317 0020 9FED338A 		vldr.32	s16, .L23+4
 318 0024 DFED337A 		vldr.32	s15, .L23+8
  20:SynthWithMoogLadder.cpp ****     float cutoff = pod.knob2.Process() * 8000.0f + 100.0f;
 319              		.loc 18 20 37 view .LVU67
 320 0028 04F18800 		add	r0, r4, #136
 321              		.loc 18 20 52 view .LVU68
 322 002c 9FED329A 		vldr.32	s18, .L23+12
  19:SynthWithMoogLadder.cpp ****     float cutoff = pod.knob2.Process() * 8000.0f + 100.0f;
 323              		.loc 18 19 56 view .LVU69
 324 0030 A0EE278A 		vfma.f32	s16, s0, s15
 325              	.LVL9:
 326              		.loc 18 20 5 is_stmt 1 view .LVU70
 327              		.loc 18 20 37 is_stmt 0 view .LVU71
 328 0034 FFF7FEFF 		bl	_ZN5daisy13AnalogControl7ProcessEv
 329              	.LVL10:
 330              		.loc 18 20 52 view .LVU72
 331 0038 DFED307A 		vldr.32	s15, .L23+16
 332              	.LBB355:
 333              	.LBB356:
  22:../../libDaisy//src/hid/encoder.h **** 
  23:../../libDaisy//src/hid/encoder.h ****     /** Initializes the encoder with the specified hardware pins.
  24:../../libDaisy//src/hid/encoder.h ****      * Update rate is to be deprecated in a future release
  25:../../libDaisy//src/hid/encoder.h ****      */
  26:../../libDaisy//src/hid/encoder.h ****     void Init(dsy_gpio_pin a,
  27:../../libDaisy//src/hid/encoder.h ****               dsy_gpio_pin b,
  28:../../libDaisy//src/hid/encoder.h ****               dsy_gpio_pin click,
  29:../../libDaisy//src/hid/encoder.h ****               float        update_rate = 0.f);
  30:../../libDaisy//src/hid/encoder.h ****     /** Called at update_rate to debounce and handle timing for the switch.
  31:../../libDaisy//src/hid/encoder.h ****      * In order for events not to be missed, its important that the Edge/Pressed checks be made at 
  32:../../libDaisy//src/hid/encoder.h ****      */
  33:../../libDaisy//src/hid/encoder.h ****     void Debounce();
  34:../../libDaisy//src/hid/encoder.h **** 
  35:../../libDaisy//src/hid/encoder.h ****     /** Returns +1 if the encoder was turned clockwise, -1 if it was turned counter-clockwise, or 0
  36:../../libDaisy//src/hid/encoder.h ****     inline int32_t Increment() const { return updated_ ? inc_ : 0; }
 334              		.loc 9 36 56 view .LVU73
 335 003c 94F84430 		ldrb	r3, [r4, #68]	@ zero_extendqisi2
 336              	.LBE356:
 337              	.LBE355:
 338              		.loc 18 20 52 view .LVU74
 339 0040 A0EE279A 		vfma.f32	s18, s0, s15
ARM GAS  /var/folders/lc/nz4b4n9j0917x10rycn0nzqh0000gn/T//ccns7ZyM.s 			page 28


 340              	.LVL11:
  21:SynthWithMoogLadder.cpp **** 
  22:SynthWithMoogLadder.cpp ****     float resonance = pod.encoder.Increment() * 0.02f;
 341              		.loc 18 22 5 is_stmt 1 view .LVU75
 342              	.LBB359:
 343              	.LBI355:
 344              		.loc 9 36 20 view .LVU76
 345              	.LBB357:
 346              		.loc 9 36 40 view .LVU77
 347              		.loc 9 36 56 is_stmt 0 view .LVU78
 348 0044 002B     		cmp	r3, #0
 349 0046 45D0     		beq	.L12
 350              	.LBE357:
 351              	.LBE359:
 352              		.loc 18 22 47 view .LVU79
 353 0048 94ED197A 		vldr.32	s14, [r4, #100]	@ int
 354              		.loc 18 22 49 view .LVU80
 355 004c DFED2C7A 		vldr.32	s15, .L23+20
 356              		.loc 18 22 47 view .LVU81
 357 0050 F8EEC78A 		vcvt.f32.s32	s17, s14
 358              		.loc 18 22 49 view .LVU82
 359 0054 68EEA78A 		vmul.f32	s17, s17, s15
 360              	.L7:
 361              	.LVL12:
  23:SynthWithMoogLadder.cpp **** 
  24:SynthWithMoogLadder.cpp ****     osc.SetFreq(freq_param);
 362              		.loc 18 24 5 is_stmt 1 view .LVU83
 363              	.LBB360:
 364              	.LBI360:
  25:../../DaisySP//Source/Synthesis/oscillator.h ****     /** Choices for output waveforms, POLYBLEP are appropriately labeled. Others are naive forms.
  26:../../DaisySP//Source/Synthesis/oscillator.h ****     */
  27:../../DaisySP//Source/Synthesis/oscillator.h ****     enum
  28:../../DaisySP//Source/Synthesis/oscillator.h ****     {
  29:../../DaisySP//Source/Synthesis/oscillator.h ****         WAVE_SIN,
  30:../../DaisySP//Source/Synthesis/oscillator.h ****         WAVE_TRI,
  31:../../DaisySP//Source/Synthesis/oscillator.h ****         WAVE_SAW,
  32:../../DaisySP//Source/Synthesis/oscillator.h ****         WAVE_RAMP,
  33:../../DaisySP//Source/Synthesis/oscillator.h ****         WAVE_SQUARE,
  34:../../DaisySP//Source/Synthesis/oscillator.h ****         WAVE_POLYBLEP_TRI,
  35:../../DaisySP//Source/Synthesis/oscillator.h ****         WAVE_POLYBLEP_SAW,
  36:../../DaisySP//Source/Synthesis/oscillator.h ****         WAVE_POLYBLEP_SQUARE,
  37:../../DaisySP//Source/Synthesis/oscillator.h ****         WAVE_LAST,
  38:../../DaisySP//Source/Synthesis/oscillator.h ****     };
  39:../../DaisySP//Source/Synthesis/oscillator.h **** 
  40:../../DaisySP//Source/Synthesis/oscillator.h **** 
  41:../../DaisySP//Source/Synthesis/oscillator.h ****     /** Initializes the Oscillator
  42:../../DaisySP//Source/Synthesis/oscillator.h **** 
  43:../../DaisySP//Source/Synthesis/oscillator.h ****         \param sample_rate - sample rate of the audio engine being run, and the frequency that the 
  44:../../DaisySP//Source/Synthesis/oscillator.h **** 
  45:../../DaisySP//Source/Synthesis/oscillator.h ****         Defaults:
  46:../../DaisySP//Source/Synthesis/oscillator.h ****         - freq_ = 100 Hz
  47:../../DaisySP//Source/Synthesis/oscillator.h ****         - amp_ = 0.5
  48:../../DaisySP//Source/Synthesis/oscillator.h ****         - waveform_ = sine wave.
  49:../../DaisySP//Source/Synthesis/oscillator.h ****     */
  50:../../DaisySP//Source/Synthesis/oscillator.h ****     void Init(float sample_rate)
  51:../../DaisySP//Source/Synthesis/oscillator.h ****     {
  52:../../DaisySP//Source/Synthesis/oscillator.h ****         sr_        = sample_rate;
ARM GAS  /var/folders/lc/nz4b4n9j0917x10rycn0nzqh0000gn/T//ccns7ZyM.s 			page 29


  53:../../DaisySP//Source/Synthesis/oscillator.h ****         sr_recip_  = 1.0f / sample_rate;
  54:../../DaisySP//Source/Synthesis/oscillator.h ****         freq_      = 100.0f;
  55:../../DaisySP//Source/Synthesis/oscillator.h ****         amp_       = 0.5f;
  56:../../DaisySP//Source/Synthesis/oscillator.h ****         pw_        = 0.5f;
  57:../../DaisySP//Source/Synthesis/oscillator.h ****         phase_     = 0.0f;
  58:../../DaisySP//Source/Synthesis/oscillator.h ****         phase_inc_ = CalcPhaseInc(freq_);
  59:../../DaisySP//Source/Synthesis/oscillator.h ****         waveform_  = WAVE_SIN;
  60:../../DaisySP//Source/Synthesis/oscillator.h ****         eoc_       = true;
  61:../../DaisySP//Source/Synthesis/oscillator.h ****         eor_       = true;
  62:../../DaisySP//Source/Synthesis/oscillator.h ****     }
  63:../../DaisySP//Source/Synthesis/oscillator.h **** 
  64:../../DaisySP//Source/Synthesis/oscillator.h **** 
  65:../../DaisySP//Source/Synthesis/oscillator.h ****     /** Changes the frequency of the Oscillator, and recalculates phase increment.
  66:../../DaisySP//Source/Synthesis/oscillator.h ****     */
  67:../../DaisySP//Source/Synthesis/oscillator.h ****     inline void SetFreq(const float f)
 365              		.loc 16 67 17 view .LVU84
 366              	.LBB361:
  68:../../DaisySP//Source/Synthesis/oscillator.h ****     {
  69:../../DaisySP//Source/Synthesis/oscillator.h ****         freq_      = f;
 367              		.loc 16 69 9 view .LVU85
 368              		.loc 16 69 20 is_stmt 0 view .LVU86
 369 0058 2A4F     		ldr	r7, .L23+24
  70:../../DaisySP//Source/Synthesis/oscillator.h ****         phase_inc_ = CalcPhaseInc(f);
 370              		.loc 16 70 34 view .LVU87
 371 005a B0EE480A 		vmov.f32	s0, s16
 372 005e 3846     		mov	r0, r7
  69:../../DaisySP//Source/Synthesis/oscillator.h ****         phase_inc_ = CalcPhaseInc(f);
 373              		.loc 16 69 20 view .LVU88
 374 0060 87ED028A 		vstr.32	s16, [r7, #8]
 375              		.loc 16 70 9 is_stmt 1 view .LVU89
 376              		.loc 16 70 34 is_stmt 0 view .LVU90
 377 0064 FFF7FEFF 		bl	_ZN7daisysp10Oscillator12CalcPhaseIncEf
 378              	.LVL13:
 379              	.LBE361:
 380              	.LBE360:
 381              	.LBB363:
 382              	.LBB364:
  24:../../DaisySP//DaisySP-LGPL/Source/Filters/moogladder.h ****     /** Initializes the MoogLadder module.
  25:../../DaisySP//DaisySP-LGPL/Source/Filters/moogladder.h ****         sample_rate - The sample rate of the audio engine being run. 
  26:../../DaisySP//DaisySP-LGPL/Source/Filters/moogladder.h ****     */
  27:../../DaisySP//DaisySP-LGPL/Source/Filters/moogladder.h ****     void Init(float sample_rate);
  28:../../DaisySP//DaisySP-LGPL/Source/Filters/moogladder.h **** 
  29:../../DaisySP//DaisySP-LGPL/Source/Filters/moogladder.h **** 
  30:../../DaisySP//DaisySP-LGPL/Source/Filters/moogladder.h ****     /** Processes the lowpass filter
  31:../../DaisySP//DaisySP-LGPL/Source/Filters/moogladder.h ****     */
  32:../../DaisySP//DaisySP-LGPL/Source/Filters/moogladder.h ****     float Process(float in);
  33:../../DaisySP//DaisySP-LGPL/Source/Filters/moogladder.h **** 
  34:../../DaisySP//DaisySP-LGPL/Source/Filters/moogladder.h ****     /** 
  35:../../DaisySP//DaisySP-LGPL/Source/Filters/moogladder.h ****         Sets the cutoff frequency or half-way point of the filter.
  36:../../DaisySP//DaisySP-LGPL/Source/Filters/moogladder.h ****         Arguments
  37:../../DaisySP//DaisySP-LGPL/Source/Filters/moogladder.h ****         - freq - frequency value in Hz. Range: Any positive value.
  38:../../DaisySP//DaisySP-LGPL/Source/Filters/moogladder.h ****     */
  39:../../DaisySP//DaisySP-LGPL/Source/Filters/moogladder.h ****     inline void SetFreq(float freq) { freq_ = freq; }
 383              		.loc 17 39 45 view .LVU91
 384 0068 274B     		ldr	r3, .L23+28
 385              	.LBE364:
 386              	.LBE363:
ARM GAS  /var/folders/lc/nz4b4n9j0917x10rycn0nzqh0000gn/T//ccns7ZyM.s 			page 30


 387              	.LBB366:
 388              	.LBB367:
  43:../../libDaisy//src/hid/switch.h **** 
  44:../../libDaisy//src/hid/switch.h ****     /** 
  45:../../libDaisy//src/hid/switch.h ****     Initializes the switch object with a given port/pin combo.
  46:../../libDaisy//src/hid/switch.h ****     \param pin port/pin object to tell the switch which hardware pin to use.
  47:../../libDaisy//src/hid/switch.h ****     \param update_rate Does nothing. Backwards compatibility until next breaking update.
  48:../../libDaisy//src/hid/switch.h ****     \param t switch type -- Default: TYPE_MOMENTARY
  49:../../libDaisy//src/hid/switch.h ****     \param pol switch polarity -- Default: POLARITY_INVERTED
  50:../../libDaisy//src/hid/switch.h ****     \param pu switch pull up/down -- Default: PULL_UP
  51:../../libDaisy//src/hid/switch.h ****     */
  52:../../libDaisy//src/hid/switch.h ****     void
  53:../../libDaisy//src/hid/switch.h ****     Init(dsy_gpio_pin pin, float update_rate, Type t, Polarity pol, Pull pu);
  54:../../libDaisy//src/hid/switch.h **** 
  55:../../libDaisy//src/hid/switch.h ****     /**
  56:../../libDaisy//src/hid/switch.h ****        Simplified Init.
  57:../../libDaisy//src/hid/switch.h ****        \param pin port/pin object to tell the switch which hardware pin to use.
  58:../../libDaisy//src/hid/switch.h ****        \param update_rate Left for backwards compatibility until next breaking change.
  59:../../libDaisy//src/hid/switch.h ****     */
  60:../../libDaisy//src/hid/switch.h ****     void Init(dsy_gpio_pin pin, float update_rate = 0.f);
  61:../../libDaisy//src/hid/switch.h **** 
  62:../../libDaisy//src/hid/switch.h ****     /** 
  63:../../libDaisy//src/hid/switch.h ****     Called at update_rate to debounce and handle timing for the switch.
  64:../../libDaisy//src/hid/switch.h ****     In order for events not to be missed, its important that the Edge/Pressed checks
  65:../../libDaisy//src/hid/switch.h ****     be made at the same rate as the debounce function is being called.
  66:../../libDaisy//src/hid/switch.h ****     */
  67:../../libDaisy//src/hid/switch.h ****     void Debounce();
  68:../../libDaisy//src/hid/switch.h **** 
  69:../../libDaisy//src/hid/switch.h ****     /** \return true if a button was just pressed. */
  70:../../libDaisy//src/hid/switch.h ****     inline bool RisingEdge() const { return updated_ ? state_ == 0x7f : false; }
 389              		.loc 7 70 54 view .LVU92
 390 006a 94F8B420 		ldrb	r2, [r4, #180]	@ zero_extendqisi2
 391              	.LBE367:
 392              	.LBE366:
 393              	.LBB369:
 394              	.LBB362:
 395              		.loc 16 70 20 view .LVU93
 396 006e 87ED070A 		vstr.32	s0, [r7, #28]
 397              	.LVL14:
 398              		.loc 16 70 20 view .LVU94
 399              	.LBE362:
 400              	.LBE369:
  25:SynthWithMoogLadder.cpp **** 	
  26:SynthWithMoogLadder.cpp ****     flt.SetFreq(cutoff);
 401              		.loc 18 26 5 is_stmt 1 view .LVU95
 402              	.LBB370:
 403              	.LBI363:
 404              		.loc 17 39 17 view .LVU96
 405              	.LBB365:
 406              		.loc 17 39 39 view .LVU97
 407              		.loc 17 39 45 is_stmt 0 view .LVU98
 408 0072 83ED029A 		vstr.32	s18, [r3, #8]
 409              	.LVL15:
 410              		.loc 17 39 45 view .LVU99
 411              	.LBE365:
 412              	.LBE370:
  27:SynthWithMoogLadder.cpp ****     flt.SetRes(resonance);
ARM GAS  /var/folders/lc/nz4b4n9j0917x10rycn0nzqh0000gn/T//ccns7ZyM.s 			page 31


 413              		.loc 18 27 5 is_stmt 1 view .LVU100
 414              	.LBB371:
 415              	.LBI371:
  40:../../DaisySP//DaisySP-LGPL/Source/Filters/moogladder.h ****     /** 
  41:../../DaisySP//DaisySP-LGPL/Source/Filters/moogladder.h ****         Sets the resonance of the filter.
  42:../../DaisySP//DaisySP-LGPL/Source/Filters/moogladder.h ****     */
  43:../../DaisySP//DaisySP-LGPL/Source/Filters/moogladder.h ****     inline void SetRes(float res) { res_ = res; }
 416              		.loc 17 43 17 view .LVU101
 417              	.LBB372:
 418              		.loc 17 43 37 view .LVU102
 419              		.loc 17 43 42 is_stmt 0 view .LVU103
 420 0076 C3ED018A 		vstr.32	s17, [r3, #4]
 421              	.LVL16:
 422              		.loc 17 43 42 view .LVU104
 423              	.LBE372:
 424              	.LBE371:
  28:SynthWithMoogLadder.cpp **** 
  29:SynthWithMoogLadder.cpp ****     if(pod.button1.RisingEdge())
 425              		.loc 18 29 5 is_stmt 1 view .LVU105
 426              	.LBB373:
 427              	.LBI366:
 428              		.loc 7 70 17 view .LVU106
 429              	.LBB368:
 430              		.loc 7 70 38 view .LVU107
 431              		.loc 7 70 54 is_stmt 0 view .LVU108
 432 007a 1AB1     		cbz	r2, .L8
 433              	.LVL17:
 434              		.loc 7 70 54 view .LVU109
 435              	.LBE368:
 436              	.LBE373:
 437              		.loc 18 29 5 view .LVU110
 438 007c 94F8BA30 		ldrb	r3, [r4, #186]	@ zero_extendqisi2
 439 0080 7F2B     		cmp	r3, #127
 440 0082 2ED0     		beq	.L21
 441              	.L8:
  30:SynthWithMoogLadder.cpp ****         gate = true;
  31:SynthWithMoogLadder.cpp **** 
  32:SynthWithMoogLadder.cpp ****     if(pod.button2.RisingEdge())
 442              		.loc 18 32 5 is_stmt 1 view .LVU111
 443              	.LVL18:
 444              	.LBB374:
 445              	.LBI374:
 446              		.loc 7 70 17 view .LVU112
 447              	.LBB375:
 448              		.loc 7 70 38 view .LVU113
 449              		.loc 7 70 54 is_stmt 0 view .LVU114
 450 0084 94F8C430 		ldrb	r3, [r4, #196]	@ zero_extendqisi2
 451 0088 1BB1     		cbz	r3, .L9
 452              	.LVL19:
 453              		.loc 7 70 54 view .LVU115
 454              	.LBE375:
 455              	.LBE374:
 456              		.loc 18 32 5 view .LVU116
 457 008a 94F8CA30 		ldrb	r3, [r4, #202]	@ zero_extendqisi2
 458 008e 7F2B     		cmp	r3, #127
 459 0090 23D0     		beq	.L22
 460              	.L9:
ARM GAS  /var/folders/lc/nz4b4n9j0917x10rycn0nzqh0000gn/T//ccns7ZyM.s 			page 32


 461              	.LVL20:
 462              	.LBB376:
  33:SynthWithMoogLadder.cpp ****         gate = false;
  34:SynthWithMoogLadder.cpp **** 
  35:SynthWithMoogLadder.cpp ****     //env.SetGate(gate);
  36:SynthWithMoogLadder.cpp **** 
  37:SynthWithMoogLadder.cpp ****     for(size_t i = 0; i < size; i++)
 463              		.loc 18 37 25 is_stmt 1 discriminator 3 view .LVU117
 464 0092 E6B1     		cbz	r6, .L6
 465              		.loc 18 37 25 is_stmt 0 view .LVU118
 466 0094 0024     		movs	r4, #0
 467 0096 1D4F     		ldr	r7, .L23+32
 468              	.LVL21:
 469              	.L10:
 470              	.LBB377:
  38:SynthWithMoogLadder.cpp ****     {
  39:SynthWithMoogLadder.cpp **** 
  40:SynthWithMoogLadder.cpp ****         float sig = osc.Process();
 471              		.loc 18 40 9 is_stmt 1 discriminator 2 view .LVU119
 472              		.loc 18 40 32 is_stmt 0 discriminator 2 view .LVU120
 473 0098 1A48     		ldr	r0, .L23+24
 474 009a FFF7FEFF 		bl	_ZN7daisysp10Oscillator7ProcessEv
 475              	.LVL22:
 476 009e B0EE408A 		vmov.f32	s16, s0
 477              	.LVL23:
  41:SynthWithMoogLadder.cpp ****         float amp = env.Process(gate);
 478              		.loc 18 41 9 is_stmt 1 discriminator 2 view .LVU121
 479              		.loc 18 41 32 is_stmt 0 discriminator 2 view .LVU122
 480 00a2 3978     		ldrb	r1, [r7]	@ zero_extendqisi2
 481 00a4 1A48     		ldr	r0, .L23+36
 482 00a6 FFF7FEFF 		bl	_ZN7daisysp4Adsr7ProcessEb
 483              	.LVL24:
  42:SynthWithMoogLadder.cpp ****         float filt = flt.Process(sig * amp);
 484              		.loc 18 42 9 is_stmt 1 discriminator 2 view .LVU123
 485              		.loc 18 42 33 is_stmt 0 discriminator 2 view .LVU124
 486 00aa 1748     		ldr	r0, .L23+28
 487 00ac 28EE000A 		vmul.f32	s0, s16, s0
 488              	.LVL25:
 489              		.loc 18 42 33 discriminator 2 view .LVU125
 490 00b0 FFF7FEFF 		bl	_ZN7daisysp10MoogLadder7ProcessEf
 491              	.LVL26:
  43:SynthWithMoogLadder.cpp **** 
  44:SynthWithMoogLadder.cpp ****         out[ 0 ][ i ] = filt;
  45:SynthWithMoogLadder.cpp ****         out[ 1 ][ i ] = filt;
 492              		.loc 18 45 23 discriminator 2 view .LVU126
 493 00b4 D5E90003 		ldrd	r0, r3, [r5]
 494              	.LVL27:
  44:SynthWithMoogLadder.cpp ****         out[ 1 ][ i ] = filt;
 495              		.loc 18 44 9 is_stmt 1 discriminator 2 view .LVU127
  44:SynthWithMoogLadder.cpp ****         out[ 1 ][ i ] = filt;
 496              		.loc 18 44 23 is_stmt 0 discriminator 2 view .LVU128
 497 00b8 00EB8400 		add	r0, r0, r4, lsl #2
 498              		.loc 18 45 23 discriminator 2 view .LVU129
 499 00bc 03EB8403 		add	r3, r3, r4, lsl #2
 500              	.LBE377:
  37:SynthWithMoogLadder.cpp ****     {
 501              		.loc 18 37 5 discriminator 2 view .LVU130
ARM GAS  /var/folders/lc/nz4b4n9j0917x10rycn0nzqh0000gn/T//ccns7ZyM.s 			page 33


 502 00c0 0134     		adds	r4, r4, #1
 503              	.LVL28:
 504              	.LBB378:
  44:SynthWithMoogLadder.cpp ****         out[ 1 ][ i ] = filt;
 505              		.loc 18 44 23 discriminator 2 view .LVU131
 506 00c2 80ED000A 		vstr.32	s0, [r0]
 507              		.loc 18 45 9 is_stmt 1 discriminator 2 view .LVU132
 508              	.LBE378:
  37:SynthWithMoogLadder.cpp ****     {
 509              		.loc 18 37 25 is_stmt 0 discriminator 2 view .LVU133
 510 00c6 A642     		cmp	r6, r4
 511              	.LBB379:
 512              		.loc 18 45 23 discriminator 2 view .LVU134
 513 00c8 83ED000A 		vstr.32	s0, [r3]
 514              	.LBE379:
  37:SynthWithMoogLadder.cpp ****     {
 515              		.loc 18 37 5 is_stmt 1 discriminator 2 view .LVU135
 516              	.LVL29:
  37:SynthWithMoogLadder.cpp ****     {
 517              		.loc 18 37 25 discriminator 2 view .LVU136
 518 00cc E4D1     		bne	.L10
 519              	.LVL30:
 520              	.L6:
  37:SynthWithMoogLadder.cpp ****     {
 521              		.loc 18 37 25 is_stmt 0 discriminator 2 view .LVU137
 522              	.LBE376:
  46:SynthWithMoogLadder.cpp **** 
  47:SynthWithMoogLadder.cpp ****     }
  48:SynthWithMoogLadder.cpp **** 
  49:SynthWithMoogLadder.cpp **** }
 523              		.loc 18 49 1 view .LVU138
 524 00ce BDEC048B 		vldm	sp!, {d8-d9}
 525              		.cfi_remember_state
 526              		.cfi_restore 82
 527              		.cfi_restore 83
 528              		.cfi_restore 80
 529              		.cfi_restore 81
 530              		.cfi_def_cfa_offset 24
 531              	.LVL31:
 532              		.loc 18 49 1 view .LVU139
 533 00d2 F8BD     		pop	{r3, r4, r5, r6, r7, pc}
 534              	.LVL32:
 535              	.L12:
 536              		.cfi_restore_state
 537              	.LBB380:
 538              	.LBB358:
 539              		.loc 18 49 1 view .LVU140
 540 00d4 DFED0F8A 		vldr.32	s17, .L23+40
 541 00d8 BEE7     		b	.L7
 542              	.LVL33:
 543              	.L22:
 544              		.loc 18 49 1 view .LVU141
 545              	.LBE358:
 546              	.LBE380:
  33:SynthWithMoogLadder.cpp **** 
 547              		.loc 18 33 9 is_stmt 1 view .LVU142
  33:SynthWithMoogLadder.cpp **** 
ARM GAS  /var/folders/lc/nz4b4n9j0917x10rycn0nzqh0000gn/T//ccns7ZyM.s 			page 34


 548              		.loc 18 33 14 is_stmt 0 view .LVU143
 549 00da 0C4F     		ldr	r7, .L23+32
 550 00dc 0023     		movs	r3, #0
 551 00de 3B70     		strb	r3, [r7]
 552 00e0 D7E7     		b	.L9
 553              	.L21:
  30:SynthWithMoogLadder.cpp **** 
 554              		.loc 18 30 9 is_stmt 1 view .LVU144
  30:SynthWithMoogLadder.cpp **** 
 555              		.loc 18 30 14 is_stmt 0 view .LVU145
 556 00e2 0A4F     		ldr	r7, .L23+32
 557 00e4 0123     		movs	r3, #1
 558 00e6 3B70     		strb	r3, [r7]
 559 00e8 CCE7     		b	.L8
 560              	.L24:
 561 00ea 00BF     		.align	2
 562              	.L23:
 563 00ec 00000000 		.word	pod
 564 00f0 00002042 		.word	1109393408
 565 00f4 00007A44 		.word	1148846080
 566 00f8 0000C842 		.word	1120403456
 567 00fc 0000FA45 		.word	1174011904
 568 0100 0AD7A33C 		.word	1017370378
 569 0104 00000000 		.word	.LANCHOR0
 570 0108 00000000 		.word	.LANCHOR1
 571 010c 00000000 		.word	.LANCHOR2
 572 0110 00000000 		.word	.LANCHOR3
 573 0114 00000000 		.word	0
 574              		.cfi_endproc
 575              	.LFE4854:
 577              		.section	.text.startup.main,"ax",%progbits
 578              		.align	1
 579              		.p2align 2,,3
 580              		.global	main
 581              		.syntax unified
 582              		.thumb
 583              		.thumb_func
 585              	main:
 586              	.LFB4855:
  50:SynthWithMoogLadder.cpp **** 
  51:SynthWithMoogLadder.cpp **** int main(void)
  52:SynthWithMoogLadder.cpp **** 
  53:SynthWithMoogLadder.cpp **** {
 587              		.loc 18 53 1 is_stmt 1 view -0
 588              		.cfi_startproc
 589              		@ Volatile: function does not return.
 590              		@ args = 0, pretend = 0, frame = 0
 591              		@ frame_needed = 0, uses_anonymous_args = 0
  54:SynthWithMoogLadder.cpp **** 
  55:SynthWithMoogLadder.cpp **** 	pod.Init();
 592              		.loc 18 55 2 view .LVU147
  53:SynthWithMoogLadder.cpp **** 
 593              		.loc 18 53 1 is_stmt 0 view .LVU148
 594 0000 08B5     		push	{r3, lr}
 595              		.cfi_def_cfa_offset 8
 596              		.cfi_offset 3, -8
 597              		.cfi_offset 14, -4
ARM GAS  /var/folders/lc/nz4b4n9j0917x10rycn0nzqh0000gn/T//ccns7ZyM.s 			page 35


 598              		.loc 18 55 10 view .LVU149
 599 0002 0021     		movs	r1, #0
 600 0004 2848     		ldr	r0, .L28
 601 0006 FFF7FEFF 		bl	_ZN5daisy8DaisyPod4InitEb
 602              	.LVL34:
  56:SynthWithMoogLadder.cpp **** 
  57:SynthWithMoogLadder.cpp **** 	osc.Init(pod.AudioSampleRate());
 603              		.loc 18 57 2 is_stmt 1 view .LVU150
 604              		.loc 18 57 10 is_stmt 0 view .LVU151
 605 000a 2748     		ldr	r0, .L28
 606 000c FFF7FEFF 		bl	_ZN5daisy8DaisyPod15AudioSampleRateEv
 607              	.LVL35:
 608              	.LBB387:
 609              	.LBB388:
  53:../../DaisySP//Source/Synthesis/oscillator.h ****         freq_      = 100.0f;
 610              		.loc 16 53 27 view .LVU152
 611 0010 F7EE006A 		vmov.f32	s13, #1.0e+0
 612              	.LBE388:
 613              	.LBE387:
 614              		.loc 18 57 10 view .LVU153
 615 0014 F0EE407A 		vmov.f32	s15, s0
 616              	.LVL36:
 617              	.LBB393:
 618              	.LBI387:
  50:../../DaisySP//Source/Synthesis/oscillator.h ****     {
 619              		.loc 16 50 10 is_stmt 1 view .LVU154
 620              	.LBB389:
  52:../../DaisySP//Source/Synthesis/oscillator.h ****         sr_recip_  = 1.0f / sample_rate;
 621              		.loc 16 52 9 view .LVU155
  52:../../DaisySP//Source/Synthesis/oscillator.h ****         sr_recip_  = 1.0f / sample_rate;
 622              		.loc 16 52 20 is_stmt 0 view .LVU156
 623 0018 244C     		ldr	r4, .L28+4
  55:../../DaisySP//Source/Synthesis/oscillator.h ****         pw_        = 0.5f;
 624              		.loc 16 55 20 view .LVU157
 625 001a B6EE008A 		vmov.f32	s16, #5.0e-1
  57:../../DaisySP//Source/Synthesis/oscillator.h ****         phase_inc_ = CalcPhaseInc(freq_);
 626              		.loc 16 57 20 view .LVU158
 627 001e 0023     		movs	r3, #0
  54:../../DaisySP//Source/Synthesis/oscillator.h ****         amp_       = 0.5f;
 628              		.loc 16 54 20 view .LVU159
 629 0020 9FED230A 		vldr.32	s0, .L28+8
 630              	.LVL37:
  58:../../DaisySP//Source/Synthesis/oscillator.h ****         waveform_  = WAVE_SIN;
 631              		.loc 16 58 34 view .LVU160
 632 0024 2046     		mov	r0, r4
  53:../../DaisySP//Source/Synthesis/oscillator.h ****         freq_      = 100.0f;
 633              		.loc 16 53 27 view .LVU161
 634 0026 86EEA77A 		vdiv.f32	s14, s13, s15
  52:../../DaisySP//Source/Synthesis/oscillator.h ****         sr_recip_  = 1.0f / sample_rate;
 635              		.loc 16 52 20 view .LVU162
 636 002a C4ED047A 		vstr.32	s15, [r4, #16]
  53:../../DaisySP//Source/Synthesis/oscillator.h ****         freq_      = 100.0f;
 637              		.loc 16 53 9 is_stmt 1 view .LVU163
 638              	.LBE389:
 639              	.LBE393:
 640              	.LBB394:
 641              	.LBB395:
ARM GAS  /var/folders/lc/nz4b4n9j0917x10rycn0nzqh0000gn/T//ccns7ZyM.s 			page 36


  71:../../DaisySP//Source/Synthesis/oscillator.h ****     }
  72:../../DaisySP//Source/Synthesis/oscillator.h **** 
  73:../../DaisySP//Source/Synthesis/oscillator.h **** 
  74:../../DaisySP//Source/Synthesis/oscillator.h ****     /** Sets the amplitude of the waveform.
  75:../../DaisySP//Source/Synthesis/oscillator.h ****     */
  76:../../DaisySP//Source/Synthesis/oscillator.h ****     inline void SetAmp(const float a) { amp_ = a; }
  77:../../DaisySP//Source/Synthesis/oscillator.h ****     /** Sets the waveform to be synthesized by the Process() function.
  78:../../DaisySP//Source/Synthesis/oscillator.h ****     */
  79:../../DaisySP//Source/Synthesis/oscillator.h ****     inline void SetWaveform(const uint8_t wf)
  80:../../DaisySP//Source/Synthesis/oscillator.h ****     {
  81:../../DaisySP//Source/Synthesis/oscillator.h ****         waveform_ = wf < WAVE_LAST ? wf : WAVE_SIN;
 642              		.loc 16 81 19 is_stmt 0 view .LVU164
 643 002e 0226     		movs	r6, #2
 644              	.LBE395:
 645              	.LBE394:
 646              	.LBB398:
 647              	.LBB390:
  57:../../DaisySP//Source/Synthesis/oscillator.h ****         phase_inc_ = CalcPhaseInc(freq_);
 648              		.loc 16 57 20 view .LVU165
 649 0030 A361     		str	r3, [r4, #24]	@ float
  54:../../DaisySP//Source/Synthesis/oscillator.h ****         amp_       = 0.5f;
 650              		.loc 16 54 20 view .LVU166
 651 0032 84ED020A 		vstr.32	s0, [r4, #8]
  55:../../DaisySP//Source/Synthesis/oscillator.h ****         pw_        = 0.5f;
 652              		.loc 16 55 20 view .LVU167
 653 0036 84ED018A 		vstr.32	s16, [r4, #4]
  56:../../DaisySP//Source/Synthesis/oscillator.h ****         phase_     = 0.0f;
 654              		.loc 16 56 20 view .LVU168
 655 003a 84ED038A 		vstr.32	s16, [r4, #12]
 656              	.LBE390:
 657              	.LBE398:
  58:SynthWithMoogLadder.cpp **** 	osc.SetWaveform(Oscillator::WAVE_SAW);
  59:SynthWithMoogLadder.cpp **** 	flt.Init(pod.AudioSampleRate());
  60:SynthWithMoogLadder.cpp **** 	//flt.SetDrive(.5f);
  61:SynthWithMoogLadder.cpp **** 	env.Init(pod.AudioSampleRate());
 658              		.loc 18 61 10 view .LVU169
 659 003e 1D4D     		ldr	r5, .L28+12
 660              	.LBB399:
 661              	.LBB391:
  53:../../DaisySP//Source/Synthesis/oscillator.h ****         freq_      = 100.0f;
 662              		.loc 16 53 20 view .LVU170
 663 0040 84ED057A 		vstr.32	s14, [r4, #20]
  54:../../DaisySP//Source/Synthesis/oscillator.h ****         amp_       = 0.5f;
 664              		.loc 16 54 9 is_stmt 1 view .LVU171
  55:../../DaisySP//Source/Synthesis/oscillator.h ****         pw_        = 0.5f;
 665              		.loc 16 55 9 view .LVU172
  56:../../DaisySP//Source/Synthesis/oscillator.h ****         phase_     = 0.0f;
 666              		.loc 16 56 9 view .LVU173
  57:../../DaisySP//Source/Synthesis/oscillator.h ****         phase_inc_ = CalcPhaseInc(freq_);
 667              		.loc 16 57 9 view .LVU174
  58:../../DaisySP//Source/Synthesis/oscillator.h ****         waveform_  = WAVE_SIN;
 668              		.loc 16 58 9 view .LVU175
  58:../../DaisySP//Source/Synthesis/oscillator.h ****         waveform_  = WAVE_SIN;
 669              		.loc 16 58 34 is_stmt 0 view .LVU176
 670 0044 FFF7FEFF 		bl	_ZN7daisysp10Oscillator12CalcPhaseIncEf
 671              	.LVL38:
  61:../../DaisySP//Source/Synthesis/oscillator.h ****     }
ARM GAS  /var/folders/lc/nz4b4n9j0917x10rycn0nzqh0000gn/T//ccns7ZyM.s 			page 37


 672              		.loc 16 61 20 view .LVU177
 673 0048 40F20113 		movw	r3, #257
 674              	.LBE391:
 675              	.LBE399:
  59:SynthWithMoogLadder.cpp **** 	//flt.SetDrive(.5f);
 676              		.loc 18 59 10 view .LVU178
 677 004c 1648     		ldr	r0, .L28
 678              	.LBB400:
 679              	.LBB396:
 680              		.loc 16 81 19 view .LVU179
 681 004e 2670     		strb	r6, [r4]
 682              	.LBE396:
 683              	.LBE400:
 684              	.LBB401:
 685              	.LBB392:
  61:../../DaisySP//Source/Synthesis/oscillator.h ****     }
 686              		.loc 16 61 20 view .LVU180
 687 0050 2385     		strh	r3, [r4, #40]	@ movhi
  58:../../DaisySP//Source/Synthesis/oscillator.h ****         waveform_  = WAVE_SIN;
 688              		.loc 16 58 20 view .LVU181
 689 0052 84ED070A 		vstr.32	s0, [r4, #28]
  59:../../DaisySP//Source/Synthesis/oscillator.h ****         eoc_       = true;
 690              		.loc 16 59 9 is_stmt 1 view .LVU182
  60:../../DaisySP//Source/Synthesis/oscillator.h ****         eor_       = true;
 691              		.loc 16 60 9 view .LVU183
  61:../../DaisySP//Source/Synthesis/oscillator.h ****     }
 692              		.loc 16 61 9 view .LVU184
 693              	.LVL39:
  61:../../DaisySP//Source/Synthesis/oscillator.h ****     }
 694              		.loc 16 61 9 is_stmt 0 view .LVU185
 695              	.LBE392:
 696              	.LBE401:
  58:SynthWithMoogLadder.cpp **** 	flt.Init(pod.AudioSampleRate());
 697              		.loc 18 58 2 is_stmt 1 view .LVU186
 698              	.LBB402:
 699              	.LBI394:
  79:../../DaisySP//Source/Synthesis/oscillator.h ****     {
 700              		.loc 16 79 17 view .LVU187
 701              	.LBB397:
 702              		.loc 16 81 9 view .LVU188
 703              		.loc 16 81 9 is_stmt 0 view .LVU189
 704              	.LBE397:
 705              	.LBE402:
  59:SynthWithMoogLadder.cpp **** 	//flt.SetDrive(.5f);
 706              		.loc 18 59 2 is_stmt 1 view .LVU190
  59:SynthWithMoogLadder.cpp **** 	//flt.SetDrive(.5f);
 707              		.loc 18 59 10 is_stmt 0 view .LVU191
 708 0056 FFF7FEFF 		bl	_ZN5daisy8DaisyPod15AudioSampleRateEv
 709              	.LVL40:
 710 005a 1748     		ldr	r0, .L28+16
 711 005c FFF7FEFF 		bl	_ZN7daisysp10MoogLadder4InitEf
 712              	.LVL41:
 713              		.loc 18 61 2 is_stmt 1 view .LVU192
 714              		.loc 18 61 10 is_stmt 0 view .LVU193
 715 0060 1148     		ldr	r0, .L28
 716 0062 FFF7FEFF 		bl	_ZN5daisy8DaisyPod15AudioSampleRateEv
 717              	.LVL42:
ARM GAS  /var/folders/lc/nz4b4n9j0917x10rycn0nzqh0000gn/T//ccns7ZyM.s 			page 38


 718 0066 0121     		movs	r1, #1
 719 0068 2846     		mov	r0, r5
 720 006a FFF7FEFF 		bl	_ZN7daisysp4Adsr4InitEfi
 721              	.LVL43:
  62:SynthWithMoogLadder.cpp **** 	env.SetTime(ADSR_SEG_ATTACK, 0.01f);
 722              		.loc 18 62 2 is_stmt 1 view .LVU194
 723              		.loc 18 62 13 is_stmt 0 view .LVU195
 724 006e 9FED130A 		vldr.32	s0, .L28+20
 725 0072 0121     		movs	r1, #1
 726 0074 2846     		mov	r0, r5
 727 0076 FFF7FEFF 		bl	_ZN7daisysp4Adsr7SetTimeEif
 728              	.LVL44:
  63:SynthWithMoogLadder.cpp **** 	env.SetTime(ADSR_SEG_DECAY, 0.2f);
 729              		.loc 18 63 2 is_stmt 1 view .LVU196
 730              		.loc 18 63 13 is_stmt 0 view .LVU197
 731 007a 3146     		mov	r1, r6
 732 007c 2846     		mov	r0, r5
 733 007e 9FED100A 		vldr.32	s0, .L28+24
 734 0082 FFF7FEFF 		bl	_ZN7daisysp4Adsr7SetTimeEif
 735              	.LVL45:
  64:SynthWithMoogLadder.cpp **** 	env.SetTime(ADSR_SEG_RELEASE, 0.5f);
 736              		.loc 18 64 2 is_stmt 1 view .LVU198
 737              		.loc 18 64 13 is_stmt 0 view .LVU199
 738 0086 0421     		movs	r1, #4
 739 0088 B0EE480A 		vmov.f32	s0, s16
 740 008c 2846     		mov	r0, r5
 741 008e FFF7FEFF 		bl	_ZN7daisysp4Adsr7SetTimeEif
 742              	.LVL46:
  65:SynthWithMoogLadder.cpp **** 	env.SetSustainLevel(0.6f);
 743              		.loc 18 65 2 is_stmt 1 view .LVU200
 744              	.LBB403:
 745              	.LBI403:
  46:../../DaisySP//Source/Control/adsr.h ****     /** Initializes the Adsr module.
  47:../../DaisySP//Source/Control/adsr.h ****         \param sample_rate - The sample rate of the audio engine being run. 
  48:../../DaisySP//Source/Control/adsr.h ****     */
  49:../../DaisySP//Source/Control/adsr.h ****     void Init(float sample_rate, int blockSize = 1);
  50:../../DaisySP//Source/Control/adsr.h ****     /**
  51:../../DaisySP//Source/Control/adsr.h ****      \function Retrigger forces the envelope back to attack phase
  52:../../DaisySP//Source/Control/adsr.h ****      \param hard  resets the history to zero, results in a click.
  53:../../DaisySP//Source/Control/adsr.h ****      */
  54:../../DaisySP//Source/Control/adsr.h ****     void Retrigger(bool hard);
  55:../../DaisySP//Source/Control/adsr.h ****     /** Processes one sample through the filter and returns one sample.
  56:../../DaisySP//Source/Control/adsr.h ****         \param gate - trigger the envelope, hold it to sustain 
  57:../../DaisySP//Source/Control/adsr.h ****     */
  58:../../DaisySP//Source/Control/adsr.h ****     float Process(bool gate);
  59:../../DaisySP//Source/Control/adsr.h ****     /** Sets time
  60:../../DaisySP//Source/Control/adsr.h ****         Set time per segment in seconds
  61:../../DaisySP//Source/Control/adsr.h ****     */
  62:../../DaisySP//Source/Control/adsr.h ****     void SetTime(int seg, float time);
  63:../../DaisySP//Source/Control/adsr.h ****     void SetAttackTime(float timeInS, float shape = 0.0f);
  64:../../DaisySP//Source/Control/adsr.h ****     void SetDecayTime(float timeInS);
  65:../../DaisySP//Source/Control/adsr.h ****     void SetReleaseTime(float timeInS);
  66:../../DaisySP//Source/Control/adsr.h **** 
  67:../../DaisySP//Source/Control/adsr.h ****   private:
  68:../../DaisySP//Source/Control/adsr.h ****     void SetTimeConstant(float timeInS, float& time, float& coeff);
  69:../../DaisySP//Source/Control/adsr.h **** 
  70:../../DaisySP//Source/Control/adsr.h ****   public:
ARM GAS  /var/folders/lc/nz4b4n9j0917x10rycn0nzqh0000gn/T//ccns7ZyM.s 			page 39


  71:../../DaisySP//Source/Control/adsr.h ****     /** Sustain level
  72:../../DaisySP//Source/Control/adsr.h ****         \param sus_level - sets sustain level, 0...1.0
  73:../../DaisySP//Source/Control/adsr.h ****     */
  74:../../DaisySP//Source/Control/adsr.h ****     inline void SetSustainLevel(float sus_level)
 746              		.loc 15 74 17 view .LVU201
 747              	.LBB404:
  75:../../DaisySP//Source/Control/adsr.h ****     {
  76:../../DaisySP//Source/Control/adsr.h ****         sus_level = (sus_level <= 0.f) ? -0.01f // forces envelope into idle
 748              		.loc 15 76 9 view .LVU202
  77:../../DaisySP//Source/Control/adsr.h ****                                        : (sus_level > 1.f) ? 1.f : sus_level;
  78:../../DaisySP//Source/Control/adsr.h ****         sus_level_ = sus_level;
 749              		.loc 15 78 9 view .LVU203
 750              		.loc 15 78 20 is_stmt 0 view .LVU204
 751 0092 0C4B     		ldr	r3, .L28+28
 752              	.LBE404:
 753              	.LBE403:
  66:SynthWithMoogLadder.cpp **** 	
  67:SynthWithMoogLadder.cpp **** 	pod.StartAdc();
 754              		.loc 18 67 14 view .LVU205
 755 0094 0448     		ldr	r0, .L28
 756              	.LBB406:
 757              	.LBB405:
 758              		.loc 15 78 20 view .LVU206
 759 0096 2B60     		str	r3, [r5]	@ float
 760              	.LVL47:
 761              		.loc 15 78 20 view .LVU207
 762              	.LBE405:
 763              	.LBE406:
 764              		.loc 18 67 2 is_stmt 1 view .LVU208
 765              		.loc 18 67 14 is_stmt 0 view .LVU209
 766 0098 FFF7FEFF 		bl	_ZN5daisy8DaisyPod8StartAdcEv
 767              	.LVL48:
  68:SynthWithMoogLadder.cpp **** 	pod.StartAudio(AudioCallback);
 768              		.loc 18 68 2 is_stmt 1 view .LVU210
 769              		.loc 18 68 16 is_stmt 0 view .LVU211
 770 009c 0A49     		ldr	r1, .L28+32
 771 009e 0248     		ldr	r0, .L28
 772 00a0 FFF7FEFF 		bl	_ZN5daisy8DaisyPod10StartAudioEPFvPKPKfPPfjE
 773              	.LVL49:
 774              	.L26:
  69:SynthWithMoogLadder.cpp **** 	
  70:SynthWithMoogLadder.cpp **** 	while(1) {}
 775              		.loc 18 70 2 is_stmt 1 discriminator 1 view .LVU212
 776              		.loc 18 70 2 discriminator 1 view .LVU213
 777              		.loc 18 70 2 discriminator 1 view .LVU214
 778              		.loc 18 70 2 discriminator 1 view .LVU215
 779 00a4 FEE7     		b	.L26
 780              	.L29:
 781 00a6 00BF     		.align	2
 782              	.L28:
 783 00a8 00000000 		.word	pod
 784 00ac 00000000 		.word	.LANCHOR0
 785 00b0 0000C842 		.word	1120403456
 786 00b4 00000000 		.word	.LANCHOR3
 787 00b8 00000000 		.word	.LANCHOR1
 788 00bc 0AD7233C 		.word	1008981770
 789 00c0 CDCC4C3E 		.word	1045220557
ARM GAS  /var/folders/lc/nz4b4n9j0917x10rycn0nzqh0000gn/T//ccns7ZyM.s 			page 40


 790 00c4 9A99193F 		.word	1058642330
 791 00c8 00000000 		.word	_Z13AudioCallbackPKPKfPPfj
 792              		.cfi_endproc
 793              	.LFE4855:
 795              		.section	.text.startup._GLOBAL__sub_I_pod,"ax",%progbits
 796              		.align	1
 797              		.p2align 2,,3
 798              		.syntax unified
 799              		.thumb
 800              		.thumb_func
 802              	_GLOBAL__sub_I_pod:
 803              	.LFB5439:
  71:SynthWithMoogLadder.cpp **** 
  72:SynthWithMoogLadder.cpp **** }...
 804              		.loc 18 72 1 view -0
 805              		.cfi_startproc
 806              		@ args = 0, pretend = 0, frame = 0
 807              		@ frame_needed = 0, uses_anonymous_args = 0
 808              	.LBB484:
 809              	.LBI484:
 810              		.loc 18 72 1 view .LVU217
 811              	.LVL50:
 812              	.LBB485:
 813              	.LBB486:
 814              	.LBI486:
  35:../../libDaisy//src/daisy_pod.h ****     ~DaisyPod() {}
 815              		.loc 1 35 5 view .LVU218
 816              	.LBB487:
 817              	.LBB488:
 818              	.LBI488:
  21:../../libDaisy//src/daisy_seed.h ****     ~DaisySeed() {}
 819              		.loc 10 21 5 view .LVU219
 820              	.LBB489:
 821              	.LBB490:
 822              	.LBI490:
 823              		.file 19 "../../libDaisy//src/per/qspi.h"
   1:../../libDaisy//src/per/qspi.h **** #ifndef DSY_QSPI
   2:../../libDaisy//src/per/qspi.h **** #define DSY_QSPI /**< Macro */
   3:../../libDaisy//src/per/qspi.h **** 
   4:../../libDaisy//src/per/qspi.h **** #ifndef UNIT_TEST // for unit tests, a dummy implementation
   5:../../libDaisy//src/per/qspi.h **** 
   6:../../libDaisy//src/per/qspi.h **** #include <cstdint>
   7:../../libDaisy//src/per/qspi.h **** #include "daisy_core.h" // Added for dsy_gpio_pin typedef
   8:../../libDaisy//src/per/qspi.h **** 
   9:../../libDaisy//src/per/qspi.h **** #define DSY_QSPI_TEXT       \
  10:../../libDaisy//src/per/qspi.h ****     __attribute__((section( \
  11:../../libDaisy//src/per/qspi.h ****         ".qspiflash_text"))) /**< used for reading memory in memory_mapped mode. */
  12:../../libDaisy//src/per/qspi.h **** #define DSY_QSPI_DATA       \
  13:../../libDaisy//src/per/qspi.h ****     __attribute__((section( \
  14:../../libDaisy//src/per/qspi.h ****         ".qspiflash_data"))) /**< used for reading memory in memory_mapped mode. */
  15:../../libDaisy//src/per/qspi.h **** #define DSY_QSPI_BSS        \
  16:../../libDaisy//src/per/qspi.h ****     __attribute__((section( \
  17:../../libDaisy//src/per/qspi.h ****         ".qspiflash_bss"))) /**< used for reading memory in memory_mapped mode. */
  18:../../libDaisy//src/per/qspi.h **** 
  19:../../libDaisy//src/per/qspi.h **** namespace daisy
  20:../../libDaisy//src/per/qspi.h **** {
  21:../../libDaisy//src/per/qspi.h **** /** @addtogroup serial
ARM GAS  /var/folders/lc/nz4b4n9j0917x10rycn0nzqh0000gn/T//ccns7ZyM.s 			page 41


  22:../../libDaisy//src/per/qspi.h **** @{
  23:../../libDaisy//src/per/qspi.h **** */
  24:../../libDaisy//src/per/qspi.h **** 
  25:../../libDaisy//src/per/qspi.h **** /** 
  26:../../libDaisy//src/per/qspi.h ****  Driver for QSPI peripheral to interface with external flash memory. \n 
  27:../../libDaisy//src/per/qspi.h ****     Currently supported QSPI Devices: \n 
  28:../../libDaisy//src/per/qspi.h ****     * IS25LP080D
  29:../../libDaisy//src/per/qspi.h **** */
  30:../../libDaisy//src/per/qspi.h **** class QSPIHandle
  31:../../libDaisy//src/per/qspi.h **** {
  32:../../libDaisy//src/per/qspi.h ****   public:
  33:../../libDaisy//src/per/qspi.h ****     enum Result
  34:../../libDaisy//src/per/qspi.h ****     {
  35:../../libDaisy//src/per/qspi.h ****         OK = 0,
  36:../../libDaisy//src/per/qspi.h ****         ERR
  37:../../libDaisy//src/per/qspi.h ****     };
  38:../../libDaisy//src/per/qspi.h **** 
  39:../../libDaisy//src/per/qspi.h ****     /** Indicates the current status of the module. 
  40:../../libDaisy//src/per/qspi.h ****          *  Warnings are indicated by a leading W.
  41:../../libDaisy//src/per/qspi.h ****          *  Errors are indicated by a leading E and cause an immediate exit.
  42:../../libDaisy//src/per/qspi.h ****          * 
  43:../../libDaisy//src/per/qspi.h ****          *  \param GOOD - No errors have been reported.
  44:../../libDaisy//src/per/qspi.h ****          *  \param E_HAL_ERROR - HAL code did not return HAL_OK.
  45:../../libDaisy//src/per/qspi.h ****          *  \param E_SWITCHING_MODES - An error was encountered while switching QSPI peripheral mod
  46:../../libDaisy//src/per/qspi.h ****          *  \param E_INVALID_MODE - QSPI should not be written to while the program is executing fr
  47:../../libDaisy//src/per/qspi.h ****          */
  48:../../libDaisy//src/per/qspi.h ****     enum Status
  49:../../libDaisy//src/per/qspi.h ****     {
  50:../../libDaisy//src/per/qspi.h ****         GOOD = 0,
  51:../../libDaisy//src/per/qspi.h ****         E_HAL_ERROR,
  52:../../libDaisy//src/per/qspi.h ****         E_SWITCHING_MODES,
  53:../../libDaisy//src/per/qspi.h ****         E_INVALID_MODE,
  54:../../libDaisy//src/per/qspi.h ****     };
  55:../../libDaisy//src/per/qspi.h **** 
  56:../../libDaisy//src/per/qspi.h ****     /** Configuration structure for interfacing with QSPI Driver */
  57:../../libDaisy//src/per/qspi.h ****     struct Config
  58:../../libDaisy//src/per/qspi.h ****     {
  59:../../libDaisy//src/per/qspi.h ****         /** Flash Devices supported. (Both of these are more-or-less the same, just different sizes
  60:../../libDaisy//src/per/qspi.h ****         enum Device
  61:../../libDaisy//src/per/qspi.h ****         {
  62:../../libDaisy//src/per/qspi.h ****             IS25LP080D,  /**< & */
  63:../../libDaisy//src/per/qspi.h ****             IS25LP064A,  /**< & */
  64:../../libDaisy//src/per/qspi.h ****             DEVICE_LAST, /**< & */
  65:../../libDaisy//src/per/qspi.h ****         };
  66:../../libDaisy//src/per/qspi.h **** 
  67:../../libDaisy//src/per/qspi.h ****         /** 
  68:../../libDaisy//src/per/qspi.h ****         Modes of operation.
  69:../../libDaisy//src/per/qspi.h ****         Memory Mapped mode: QSPI configured so that the QSPI can be
  70:../../libDaisy//src/per/qspi.h ****         read from starting address 0x90000000. Writing is not
  71:../../libDaisy//src/per/qspi.h ****         possible in this mode. \n 
  72:../../libDaisy//src/per/qspi.h ****         Indirect Polling mode: Device driver enabled. 
  73:../../libDaisy//src/per/qspi.h ****         */
  74:../../libDaisy//src/per/qspi.h ****         enum Mode
  75:../../libDaisy//src/per/qspi.h ****         {
  76:../../libDaisy//src/per/qspi.h ****             MEMORY_MAPPED,    /**< & */
  77:../../libDaisy//src/per/qspi.h ****             INDIRECT_POLLING, /**< & */
  78:../../libDaisy//src/per/qspi.h ****             MODE_LAST,
ARM GAS  /var/folders/lc/nz4b4n9j0917x10rycn0nzqh0000gn/T//ccns7ZyM.s 			page 42


  79:../../libDaisy//src/per/qspi.h ****         };
  80:../../libDaisy//src/per/qspi.h **** 
  81:../../libDaisy//src/per/qspi.h ****         //SCK,  CE# (active low)
  82:../../libDaisy//src/per/qspi.h ****         struct
  83:../../libDaisy//src/per/qspi.h ****         {
  84:../../libDaisy//src/per/qspi.h ****             dsy_gpio_pin io0; /**< & */
  85:../../libDaisy//src/per/qspi.h ****             dsy_gpio_pin io1; /**< & */
  86:../../libDaisy//src/per/qspi.h ****             dsy_gpio_pin io2; /**< & */
  87:../../libDaisy//src/per/qspi.h ****             dsy_gpio_pin io3; /**< & */
  88:../../libDaisy//src/per/qspi.h ****             dsy_gpio_pin clk; /**< & */
  89:../../libDaisy//src/per/qspi.h ****             dsy_gpio_pin ncs; /**< & */
  90:../../libDaisy//src/per/qspi.h ****         } pin_config;
  91:../../libDaisy//src/per/qspi.h **** 
  92:../../libDaisy//src/per/qspi.h ****         Device device;
  93:../../libDaisy//src/per/qspi.h ****         Mode   mode;
  94:../../libDaisy//src/per/qspi.h ****     };
  95:../../libDaisy//src/per/qspi.h **** 
  96:../../libDaisy//src/per/qspi.h ****     /** 
  97:../../libDaisy//src/per/qspi.h ****         Initializes QSPI peripheral, and Resets, and prepares memory for access.
  98:../../libDaisy//src/per/qspi.h ****         \param config should be populated with the mode, device and pin_config before calling this 
  99:../../libDaisy//src/per/qspi.h ****         \return Result::OK or Result::ERR
 100:../../libDaisy//src/per/qspi.h ****         */
 101:../../libDaisy//src/per/qspi.h ****     Result Init(const Config& config);
 102:../../libDaisy//src/per/qspi.h **** 
 103:../../libDaisy//src/per/qspi.h ****     /** Returns the current config. */
 104:../../libDaisy//src/per/qspi.h ****     const Config& GetConfig() const;
 105:../../libDaisy//src/per/qspi.h **** 
 106:../../libDaisy//src/per/qspi.h ****     // Couldn't this just be called before anything else in init? That
 107:../../libDaisy//src/per/qspi.h ****     // would make manually calling it unnecessary.
 108:../../libDaisy//src/per/qspi.h ****     /** 
 109:../../libDaisy//src/per/qspi.h ****         Deinitializes the peripheral
 110:../../libDaisy//src/per/qspi.h ****         This should be called before reinitializing QSPI in a different mode.
 111:../../libDaisy//src/per/qspi.h ****         \return Result::OK or Result::ERR
 112:../../libDaisy//src/per/qspi.h ****         */
 113:../../libDaisy//src/per/qspi.h ****     Result DeInit();
 114:../../libDaisy//src/per/qspi.h **** 
 115:../../libDaisy//src/per/qspi.h ****     /** 
 116:../../libDaisy//src/per/qspi.h ****         Writes a single page to to the specified address on the QSPI chip.
 117:../../libDaisy//src/per/qspi.h ****         For IS25LP*, page size is 256 bytes.
 118:../../libDaisy//src/per/qspi.h ****         \param address Address to write to
 119:../../libDaisy//src/per/qspi.h ****         \param size Buffer size
 120:../../libDaisy//src/per/qspi.h ****         \param buffer Buffer to write
 121:../../libDaisy//src/per/qspi.h ****         \return Result::OK or Result::ERR
 122:../../libDaisy//src/per/qspi.h ****         */
 123:../../libDaisy//src/per/qspi.h ****     Result WritePage(uint32_t address, uint32_t size, uint8_t* buffer);
 124:../../libDaisy//src/per/qspi.h **** 
 125:../../libDaisy//src/per/qspi.h ****     /** 
 126:../../libDaisy//src/per/qspi.h ****         Writes data in buffer to to the QSPI. Starting at address to address+size 
 127:../../libDaisy//src/per/qspi.h ****         \param address Address to write to
 128:../../libDaisy//src/per/qspi.h ****         \param size Buffer size
 129:../../libDaisy//src/per/qspi.h ****         \param buffer Buffer to write
 130:../../libDaisy//src/per/qspi.h ****         \return Result::OK or Result::ERR
 131:../../libDaisy//src/per/qspi.h ****         */
 132:../../libDaisy//src/per/qspi.h ****     Result Write(uint32_t address, uint32_t size, uint8_t* buffer);
 133:../../libDaisy//src/per/qspi.h **** 
 134:../../libDaisy//src/per/qspi.h ****     /** 
 135:../../libDaisy//src/per/qspi.h ****         Erases the area specified on the chip.
ARM GAS  /var/folders/lc/nz4b4n9j0917x10rycn0nzqh0000gn/T//ccns7ZyM.s 			page 43


 136:../../libDaisy//src/per/qspi.h ****         Erasures will happen by 4K, 32K or 64K increments.
 137:../../libDaisy//src/per/qspi.h ****         Smallest erase possible is 4kB at a time. (on IS25LP*)
 138:../../libDaisy//src/per/qspi.h ****         \param start_addr Address to begin erasing from
 139:../../libDaisy//src/per/qspi.h ****         \param end_addr  Address to stop erasing at
 140:../../libDaisy//src/per/qspi.h ****         \return Result::OK or Result::ERR
 141:../../libDaisy//src/per/qspi.h ****         */
 142:../../libDaisy//src/per/qspi.h ****     Result Erase(uint32_t start_addr, uint32_t end_addr);
 143:../../libDaisy//src/per/qspi.h **** 
 144:../../libDaisy//src/per/qspi.h ****     /**  
 145:../../libDaisy//src/per/qspi.h ****          Erases a single sector of the chip.  
 146:../../libDaisy//src/per/qspi.h ****         TODO: Document the size of this function. 
 147:../../libDaisy//src/per/qspi.h ****         \param address Address of sector to erase
 148:../../libDaisy//src/per/qspi.h ****         \return Result::OK or Result::ERR
 149:../../libDaisy//src/per/qspi.h ****         */
 150:../../libDaisy//src/per/qspi.h ****     Result EraseSector(uint32_t address);
 151:../../libDaisy//src/per/qspi.h **** 
 152:../../libDaisy//src/per/qspi.h ****     /** Returns the current class status. Useful for debugging.
 153:../../libDaisy//src/per/qspi.h ****      *  \returns Status
 154:../../libDaisy//src/per/qspi.h ****      */
 155:../../libDaisy//src/per/qspi.h ****     Status GetStatus();
 156:../../libDaisy//src/per/qspi.h **** 
 157:../../libDaisy//src/per/qspi.h ****     /** Returns a pointer to the actual memory used 
 158:../../libDaisy//src/per/qspi.h ****      *  The memory at this address is read-only
 159:../../libDaisy//src/per/qspi.h ****      *  to write to it use the Write function.
 160:../../libDaisy//src/per/qspi.h ****      * 
 161:../../libDaisy//src/per/qspi.h ****      *  \param offset returns the pointer starting this 
 162:../../libDaisy//src/per/qspi.h ****      *                many bytes into the memory
 163:../../libDaisy//src/per/qspi.h ****     */
 164:../../libDaisy//src/per/qspi.h ****     void* GetData(uint32_t offset = 0);
 165:../../libDaisy//src/per/qspi.h **** 
 166:../../libDaisy//src/per/qspi.h ****     QSPIHandle() : pimpl_(nullptr) {}
 824              		.loc 19 166 5 view .LVU220
 825              	.LBE490:
 826              	.LBE489:
 827              	.LBE488:
 828              	.LBE487:
 829              	.LBE486:
 830              	.LBE485:
 831              	.LBE484:
 832              		.loc 18 72 1 is_stmt 0 view .LVU221
 833 0000 70B5     		push	{r4, r5, r6, lr}
 834              		.cfi_def_cfa_offset 16
 835              		.cfi_offset 4, -16
 836              		.cfi_offset 5, -12
 837              		.cfi_offset 6, -8
 838              		.cfi_offset 14, -4
 839              	.LBB603:
 840              	.LBB601:
 841              	.LBB583:
 842              	.LBB579:
 843              	.LBB513:
 844              	.LBB510:
 845              	.LBB495:
 846              	.LBB491:
 847              	.LBB492:
 848              		.loc 19 166 34 view .LVU222
 849 0002 204C     		ldr	r4, .L32
ARM GAS  /var/folders/lc/nz4b4n9j0917x10rycn0nzqh0000gn/T//ccns7ZyM.s 			page 44


 850 0004 0025     		movs	r5, #0
 851              	.LBE492:
 852              	.LBE491:
 853              	.LBE495:
 854              	.LBE510:
 855              	.LBE513:
 856              	.LBE579:
 857              	.LBE583:
   7:SynthWithMoogLadder.cpp **** DaisyPod pod;
 858              		.loc 18 7 10 view .LVU223
 859 0006 204E     		ldr	r6, .L32+4
 860              	.LBB584:
 861              	.LBB580:
 862              	.LBB514:
 863              	.LBB511:
 864              	.LBB496:
 865              	.LBB494:
 866              	.LBB493:
 867              		.loc 19 166 34 view .LVU224
 868 0008 2560     		str	r5, [r4]
 869              	.LVL51:
 870              		.loc 19 166 34 view .LVU225
 871              	.LBE493:
 872              	.LBE494:
 873              	.LBE496:
 874              	.LBB497:
 875              	.LBI497:
  95:../../libDaisy//src/hid/audio.h ****     ~AudioHandle() {}
 876              		.loc 14 95 5 is_stmt 1 view .LVU226
 877              	.LBE497:
 878              	.LBE511:
 879              	.LBE514:
 880              	.LBB515:
 881              	.LBB516:
 882              	.LBB517:
 883              	.LBB518:
 157:../../libDaisy//src/hid/midi.h **** 
 158:../../libDaisy//src/hid/midi.h ****     struct Config
 884              		.loc 2 158 12 is_stmt 0 view .LVU227
 885 000a 04F5C070 		add	r0, r4, #384
 886              	.LBE518:
 887              	.LBE517:
 888              	.LBE516:
 889              	.LBE515:
 890              	.LBB558:
 891              	.LBB512:
 892              	.LBB500:
 893              	.LBB498:
 894              	.LBB499:
  95:../../libDaisy//src/hid/audio.h ****     ~AudioHandle() {}
 895              		.loc 14 95 35 view .LVU228
 896 000e 6561     		str	r5, [r4, #20]
 897              	.LVL52:
  95:../../libDaisy//src/hid/audio.h ****     ~AudioHandle() {}
 898              		.loc 14 95 35 view .LVU229
 899              	.LBE499:
 900              	.LBE498:
ARM GAS  /var/folders/lc/nz4b4n9j0917x10rycn0nzqh0000gn/T//ccns7ZyM.s 			page 45


 901              	.LBE500:
 902              	.LBB501:
 903              	.LBI501:
 109:../../libDaisy//src/per/adc.h ****     ~AdcHandle() {}
 904              		.loc 13 109 5 is_stmt 1 view .LVU230
 109:../../libDaisy//src/per/adc.h ****     ~AdcHandle() {}
 905              		.loc 13 109 5 is_stmt 0 view .LVU231
 906              	.LBE501:
 907              	.LBB502:
 908              	.LBI502:
 909              		.file 20 "../../libDaisy//src/per/dac.h"
   1:../../libDaisy//src/per/dac.h **** #pragma once
   2:../../libDaisy//src/per/dac.h **** #ifndef DSY_DAC_H
   3:../../libDaisy//src/per/dac.h **** #define DSY_DAC_H
   4:../../libDaisy//src/per/dac.h **** 
   5:../../libDaisy//src/per/dac.h **** #include "daisy_core.h"
   6:../../libDaisy//src/per/dac.h **** 
   7:../../libDaisy//src/per/dac.h **** namespace daisy
   8:../../libDaisy//src/per/dac.h **** {
   9:../../libDaisy//src/per/dac.h **** /** @brief DAC handle for Built-in DAC Peripheral 
  10:../../libDaisy//src/per/dac.h ****  *  @ingroup per_analog
  11:../../libDaisy//src/per/dac.h ****  ** 
  12:../../libDaisy//src/per/dac.h ****  ** For now only Normal Mode is supported,
  13:../../libDaisy//src/per/dac.h ****  ** Sample and hold mode provides reduced power consumption, but requires a bit more setup.
  14:../../libDaisy//src/per/dac.h ****  **
  15:../../libDaisy//src/per/dac.h ****  ** For now connecting the DAC through other internal peripherals is also not supported.
  16:../../libDaisy//src/per/dac.h ****  **
  17:../../libDaisy//src/per/dac.h ****  ** Since the DAC channels have dedicated pins we don't need to pass in a pin config like with
  18:../../libDaisy//src/per/dac.h ****  ** other modules. However, it is still important to not try to use the DAC pins for anything else.
  19:../../libDaisy//src/per/dac.h ****  ** DAC Channel 1 is on PA4, and DAC Channel 2 is on PA5
  20:../../libDaisy//src/per/dac.h ****  ***/
  21:../../libDaisy//src/per/dac.h **** class DacHandle
  22:../../libDaisy//src/per/dac.h **** {
  23:../../libDaisy//src/per/dac.h ****   public:
  24:../../libDaisy//src/per/dac.h ****     /** Return Values for the DacHandle class */
  25:../../libDaisy//src/per/dac.h ****     enum class Result
  26:../../libDaisy//src/per/dac.h ****     {
  27:../../libDaisy//src/per/dac.h ****         OK,
  28:../../libDaisy//src/per/dac.h ****         ERR,
  29:../../libDaisy//src/per/dac.h ****     };
  30:../../libDaisy//src/per/dac.h **** 
  31:../../libDaisy//src/per/dac.h ****     /** Selects which channel(s) will be configured for use. */
  32:../../libDaisy//src/per/dac.h ****     enum class Channel
  33:../../libDaisy//src/per/dac.h ****     {
  34:../../libDaisy//src/per/dac.h ****         ONE,
  35:../../libDaisy//src/per/dac.h ****         TWO,
  36:../../libDaisy//src/per/dac.h ****         BOTH,
  37:../../libDaisy//src/per/dac.h ****     };
  38:../../libDaisy//src/per/dac.h **** 
  39:../../libDaisy//src/per/dac.h ****     /** Sets the Mode for the DAC channels.
  40:../../libDaisy//src/per/dac.h ****      **
  41:../../libDaisy//src/per/dac.h ****      ** Polling mode uses the blocking mode to transmit a single value at a time.
  42:../../libDaisy//src/per/dac.h ****      **
  43:../../libDaisy//src/per/dac.h ****      ** DMA mode uses a buffer, and periodically transmits it triggering a 
  44:../../libDaisy//src/per/dac.h ****      ** callback to fill the buffer when it is ready for more samples.
  45:../../libDaisy//src/per/dac.h ****      ***/
  46:../../libDaisy//src/per/dac.h ****     enum class Mode
ARM GAS  /var/folders/lc/nz4b4n9j0917x10rycn0nzqh0000gn/T//ccns7ZyM.s 			page 46


  47:../../libDaisy//src/per/dac.h ****     {
  48:../../libDaisy//src/per/dac.h ****         POLLING,
  49:../../libDaisy//src/per/dac.h ****         DMA,
  50:../../libDaisy//src/per/dac.h ****     };
  51:../../libDaisy//src/per/dac.h **** 
  52:../../libDaisy//src/per/dac.h ****     /** Sets the number of bits per sample transmitted out of the DAC.
  53:../../libDaisy//src/per/dac.h ****      ** The output range will be: 0V - VDDA
  54:../../libDaisy//src/per/dac.h ****      ** The resolution will be roughly: bitdepth / (VDDA - 0V) 
  55:../../libDaisy//src/per/dac.h ****      ***/
  56:../../libDaisy//src/per/dac.h ****     enum class BitDepth
  57:../../libDaisy//src/per/dac.h ****     {
  58:../../libDaisy//src/per/dac.h ****         BITS_8,
  59:../../libDaisy//src/per/dac.h ****         BITS_12
  60:../../libDaisy//src/per/dac.h ****     };
  61:../../libDaisy//src/per/dac.h **** 
  62:../../libDaisy//src/per/dac.h ****     /** Sets whether the DAC output is buffered for higher drive ability. */
  63:../../libDaisy//src/per/dac.h ****     enum class BufferState
  64:../../libDaisy//src/per/dac.h ****     {
  65:../../libDaisy//src/per/dac.h ****         ENABLED,
  66:../../libDaisy//src/per/dac.h ****         DISABLED,
  67:../../libDaisy//src/per/dac.h ****     };
  68:../../libDaisy//src/per/dac.h **** 
  69:../../libDaisy//src/per/dac.h ****     /** Configuration structure for initializing the DAC structure. */
  70:../../libDaisy//src/per/dac.h ****     struct Config
  71:../../libDaisy//src/per/dac.h ****     {
  72:../../libDaisy//src/per/dac.h ****         /** Target Samplerate in Hz used to configure the internal 
  73:../../libDaisy//src/per/dac.h ****          ** timebase for DMA mode. Does nothing in POLLING mode.
  74:../../libDaisy//src/per/dac.h ****          ** If the value is 0 at Init time this will default to 48000Hz 
  75:../../libDaisy//src/per/dac.h ****          ** otherwise the driver will attempt meet the target.*/
  76:../../libDaisy//src/per/dac.h ****         uint32_t target_samplerate;
  77:../../libDaisy//src/per/dac.h **** 
  78:../../libDaisy//src/per/dac.h ****         Channel     chn;
  79:../../libDaisy//src/per/dac.h ****         Mode        mode;
  80:../../libDaisy//src/per/dac.h ****         BitDepth    bitdepth;
  81:../../libDaisy//src/per/dac.h ****         BufferState buff_state;
  82:../../libDaisy//src/per/dac.h ****     };
  83:../../libDaisy//src/per/dac.h **** 
  84:../../libDaisy//src/per/dac.h ****     DacHandle() : pimpl_(nullptr) {}
 910              		.loc 20 84 5 is_stmt 1 view .LVU232
 911              	.LBB503:
 912              	.LBB504:
 913              		.loc 20 84 33 is_stmt 0 view .LVU233
 914 0010 2562     		str	r5, [r4, #32]
 915              	.LVL53:
 916              		.loc 20 84 33 view .LVU234
 917              	.LBE504:
 918              	.LBE503:
 919              	.LBE502:
 920              	.LBB505:
 921              	.LBI505:
  40:../../libDaisy//src/hid/usb.h **** 
 922              		.loc 12 40 5 is_stmt 1 view .LVU235
  40:../../libDaisy//src/hid/usb.h **** 
 923              		.loc 12 40 5 is_stmt 0 view .LVU236
 924              	.LBE505:
 925              	.LBB506:
 926              	.LBI506:
ARM GAS  /var/folders/lc/nz4b4n9j0917x10rycn0nzqh0000gn/T//ccns7ZyM.s 			page 47


  96:../../libDaisy//src/sys/system.h ****     ~System() {}
 927              		.loc 11 96 5 is_stmt 1 view .LVU237
  96:../../libDaisy//src/sys/system.h ****     ~System() {}
 928              		.loc 11 96 5 is_stmt 0 view .LVU238
 929              	.LBE506:
 930              	.LBB507:
 931              	.LBI507:
 932              		.file 21 "../../libDaisy//src/per/sai.h"
   1:../../libDaisy//src/per/sai.h **** #pragma once
   2:../../libDaisy//src/per/sai.h **** #ifndef DSY_SAI_H
   3:../../libDaisy//src/per/sai.h **** #define DSY_SAI_H
   4:../../libDaisy//src/per/sai.h **** 
   5:../../libDaisy//src/per/sai.h **** #include "daisy_core.h"
   6:../../libDaisy//src/per/sai.h **** 
   7:../../libDaisy//src/per/sai.h **** namespace daisy
   8:../../libDaisy//src/per/sai.h **** {
   9:../../libDaisy//src/per/sai.h **** /** 
  10:../../libDaisy//src/per/sai.h ****  * Support for I2S Audio Protocol with different bit-depth, samplerate options
  11:../../libDaisy//src/per/sai.h ****  * Allows for master or slave, as well as freedom of selecting direction, 
  12:../../libDaisy//src/per/sai.h ****  * and other behavior for each peripheral, and block.
  13:../../libDaisy//src/per/sai.h ****  * 
  14:../../libDaisy//src/per/sai.h ****  * DMA Transfer commands must use buffers located within non-cached memory or use cache maintenance
  15:../../libDaisy//src/per/sai.h ****  * To declare an unitialized global element in the DMA memory section:
  16:../../libDaisy//src/per/sai.h ****  *    int32_t DSY_DMA_BUFFER_SECTOR my_buffer[96];
  17:../../libDaisy//src/per/sai.h ****  *
  18:../../libDaisy//src/per/sai.h ****  * Callback functions will be called once per half of the buffer. In the above example, 
  19:../../libDaisy//src/per/sai.h ****  * the callback function would be called once for every 48 samples.
  20:../../libDaisy//src/per/sai.h ****  * 
  21:../../libDaisy//src/per/sai.h ****  * Use SAI Handle like this:
  22:../../libDaisy//src/per/sai.h ****  * 
  23:../../libDaisy//src/per/sai.h ****  *  SaiHandle::Config sai_config;
  24:../../libDaisy//src/per/sai.h ****  *  sai_config.periph          = SaiHandle::Config::Peripheral::SAI_1;
  25:../../libDaisy//src/per/sai.h ****  *  sai_config.sr              = SaiHandle::Config::SampleRate::SAI_48KHZ;
  26:../../libDaisy//src/per/sai.h ****  *  sai_config.bit_depth       = SaiHandle::Config::BitDepth::SAI_24BIT;
  27:../../libDaisy//src/per/sai.h ****  *  sai_config.a_sync          = SaiHandle::Config::Sync::MASTER;
  28:../../libDaisy//src/per/sai.h ****  *  sai_config.b_sync          = SaiHandle::Config::Sync::SLAVE;
  29:../../libDaisy//src/per/sai.h ****  *  sai_config.a_dir           = SaiHandle::Config::Direction::RECEIVE;
  30:../../libDaisy//src/per/sai.h ****  *  sai_config.b_dir           = SaiHandle::Config::Direction::TRANSMIT;
  31:../../libDaisy//src/per/sai.h ****  *  sai_config.pin_config.fs   = {DSY_GPIOE, 4};
  32:../../libDaisy//src/per/sai.h ****  *  sai_config.pin_config.mclk = {DSY_GPIOE, 2};
  33:../../libDaisy//src/per/sai.h ****  *  sai_config.pin_config.sck  = {DSY_GPIOE, 5};
  34:../../libDaisy//src/per/sai.h ****  *  sai_config.pin_config.sa   = {DSY_GPIOE, 6};
  35:../../libDaisy//src/per/sai.h ****  *  sai_config.pin_config.sb   = {DSY_GPIOE, 3};
  36:../../libDaisy//src/per/sai.h ****  *  // Then Initialize
  37:../../libDaisy//src/per/sai.h ****  *  SaiHandle sai;
  38:../../libDaisy//src/per/sai.h ****  *  sai.Init(sai_config);
  39:../../libDaisy//src/per/sai.h ****  *  // Now you can use it:
  40:../../libDaisy//src/per/sai.h ****  *  sai.StartDma(. . .);
  41:../../libDaisy//src/per/sai.h ****  */
  42:../../libDaisy//src/per/sai.h **** class SaiHandle
  43:../../libDaisy//src/per/sai.h **** {
  44:../../libDaisy//src/per/sai.h ****   public:
  45:../../libDaisy//src/per/sai.h ****     /** Contains settings for initialising an SAI Interface */
  46:../../libDaisy//src/per/sai.h ****     struct Config
  47:../../libDaisy//src/per/sai.h ****     {
  48:../../libDaisy//src/per/sai.h ****         /** Specifies the internal peripheral to use (mapped to different hardware pins) */
  49:../../libDaisy//src/per/sai.h ****         enum class Peripheral
ARM GAS  /var/folders/lc/nz4b4n9j0917x10rycn0nzqh0000gn/T//ccns7ZyM.s 			page 48


  50:../../libDaisy//src/per/sai.h ****         {
  51:../../libDaisy//src/per/sai.h ****             SAI_1,
  52:../../libDaisy//src/per/sai.h ****             SAI_2,
  53:../../libDaisy//src/per/sai.h ****         };
  54:../../libDaisy//src/per/sai.h **** 
  55:../../libDaisy//src/per/sai.h ****         /** Rate at which samples will be streaming to/from the device. */
  56:../../libDaisy//src/per/sai.h ****         enum class SampleRate
  57:../../libDaisy//src/per/sai.h ****         {
  58:../../libDaisy//src/per/sai.h ****             SAI_8KHZ,
  59:../../libDaisy//src/per/sai.h ****             SAI_16KHZ,
  60:../../libDaisy//src/per/sai.h ****             SAI_32KHZ,
  61:../../libDaisy//src/per/sai.h ****             SAI_48KHZ,
  62:../../libDaisy//src/per/sai.h ****             SAI_96KHZ,
  63:../../libDaisy//src/per/sai.h ****         };
  64:../../libDaisy//src/per/sai.h **** 
  65:../../libDaisy//src/per/sai.h ****         /** Bit Depth that the hardware expects to be transferred to/from the device. */
  66:../../libDaisy//src/per/sai.h ****         enum class BitDepth
  67:../../libDaisy//src/per/sai.h ****         {
  68:../../libDaisy//src/per/sai.h ****             SAI_16BIT,
  69:../../libDaisy//src/per/sai.h ****             SAI_24BIT,
  70:../../libDaisy//src/per/sai.h ****             SAI_32BIT,
  71:../../libDaisy//src/per/sai.h ****         };
  72:../../libDaisy//src/per/sai.h **** 
  73:../../libDaisy//src/per/sai.h ****         /** Specifies whether a particular block is the master or the slave 
  74:../../libDaisy//src/per/sai.h ****          ** If both are set to slave, no MCLK signal will be used, and it is
  75:../../libDaisy//src/per/sai.h ****          ** expected that the codec will have its own xtal.
  76:../../libDaisy//src/per/sai.h ****          */
  77:../../libDaisy//src/per/sai.h ****         enum class Sync
  78:../../libDaisy//src/per/sai.h ****         {
  79:../../libDaisy//src/per/sai.h ****             MASTER,
  80:../../libDaisy//src/per/sai.h ****             SLAVE,
  81:../../libDaisy//src/per/sai.h ****         };
  82:../../libDaisy//src/per/sai.h **** 
  83:../../libDaisy//src/per/sai.h ****         /** Specifies the direction for each peripheral block. */
  84:../../libDaisy//src/per/sai.h ****         enum class Direction
  85:../../libDaisy//src/per/sai.h ****         {
  86:../../libDaisy//src/per/sai.h ****             TRANSMIT,
  87:../../libDaisy//src/per/sai.h ****             RECEIVE,
  88:../../libDaisy//src/per/sai.h ****         };
  89:../../libDaisy//src/per/sai.h **** 
  90:../../libDaisy//src/per/sai.h ****         Peripheral periph;
  91:../../libDaisy//src/per/sai.h ****         struct
  92:../../libDaisy//src/per/sai.h ****         {
  93:../../libDaisy//src/per/sai.h ****             dsy_gpio_pin mclk, fs, sck, sa, sb;
  94:../../libDaisy//src/per/sai.h ****         } pin_config;
  95:../../libDaisy//src/per/sai.h ****         SampleRate sr;
  96:../../libDaisy//src/per/sai.h ****         BitDepth   bit_depth;
  97:../../libDaisy//src/per/sai.h ****         Sync       a_sync, b_sync;
  98:../../libDaisy//src/per/sai.h ****         Direction  a_dir, b_dir;
  99:../../libDaisy//src/per/sai.h ****     };
 100:../../libDaisy//src/per/sai.h **** 
 101:../../libDaisy//src/per/sai.h ****     /** Return values for SAI functions */
 102:../../libDaisy//src/per/sai.h ****     enum class Result
 103:../../libDaisy//src/per/sai.h ****     {
 104:../../libDaisy//src/per/sai.h ****         OK,
 105:../../libDaisy//src/per/sai.h ****         ERR,
 106:../../libDaisy//src/per/sai.h ****     };
ARM GAS  /var/folders/lc/nz4b4n9j0917x10rycn0nzqh0000gn/T//ccns7ZyM.s 			page 49


 107:../../libDaisy//src/per/sai.h **** 
 108:../../libDaisy//src/per/sai.h ****     SaiHandle() : pimpl_(nullptr) {}
 933              		.loc 21 108 5 is_stmt 1 view .LVU239
 934              	.LBB508:
 935              	.LBB509:
 936              		.loc 21 108 33 is_stmt 0 view .LVU240
 937 0012 E563     		str	r5, [r4, #60]
 938              	.LVL54:
 939              		.loc 21 108 33 view .LVU241
 940              	.LBE509:
 941              	.LBE508:
 942              	.LBE507:
 943              	.LBE512:
 944              	.LBE558:
 945              	.LBB559:
 946              	.LBI559:
  20:../../libDaisy//src/hid/encoder.h ****     ~Encoder() {}
 947              		.loc 9 20 5 is_stmt 1 view .LVU242
 948              	.LBB560:
 949              	.LBB561:
 950              	.LBI561:
  41:../../libDaisy//src/hid/switch.h ****     ~Switch() {}
 951              		.loc 7 41 5 view .LVU243
  41:../../libDaisy//src/hid/switch.h ****     ~Switch() {}
 952              		.loc 7 41 5 is_stmt 0 view .LVU244
 953              	.LBE561:
 954              	.LBE560:
 955              	.LBE559:
 956              	.LBB562:
 957              	.LBI562:
  21:../../libDaisy//src/hid/ctrl.h ****     /** destructor */
 958              		.loc 8 21 5 is_stmt 1 view .LVU245
  21:../../libDaisy//src/hid/ctrl.h ****     /** destructor */
 959              		.loc 8 21 5 is_stmt 0 view .LVU246
 960              	.LBE562:
 961              	.LBB563:
 962              	.LBI563:
  21:../../libDaisy//src/hid/ctrl.h ****     /** destructor */
 963              		.loc 8 21 5 is_stmt 1 view .LVU247
  21:../../libDaisy//src/hid/ctrl.h ****     /** destructor */
 964              		.loc 8 21 5 is_stmt 0 view .LVU248
 965              	.LBE563:
 966              	.LBB564:
 967              	.LBI564:
  41:../../libDaisy//src/hid/switch.h ****     ~Switch() {}
 968              		.loc 7 41 5 is_stmt 1 view .LVU249
  41:../../libDaisy//src/hid/switch.h ****     ~Switch() {}
 969              		.loc 7 41 5 is_stmt 0 view .LVU250
 970              	.LBE564:
 971              	.LBB565:
 972              	.LBI565:
  41:../../libDaisy//src/hid/switch.h ****     ~Switch() {}
 973              		.loc 7 41 5 is_stmt 1 view .LVU251
  41:../../libDaisy//src/hid/switch.h ****     ~Switch() {}
 974              		.loc 7 41 5 is_stmt 0 view .LVU252
 975              	.LBE565:
 976              	.LBB566:
ARM GAS  /var/folders/lc/nz4b4n9j0917x10rycn0nzqh0000gn/T//ccns7ZyM.s 			page 50


 977              	.LBI566:
  17:../../libDaisy//src/hid/rgb_led.h ****     ~RgbLed() {}
 978              		.loc 5 17 5 is_stmt 1 view .LVU253
 979              	.LBB567:
 980              	.LBB568:
 981              	.LBI568:
  24:../../libDaisy//src/hid/led.h ****     ~Led() {}
 982              		.loc 6 24 5 view .LVU254
  24:../../libDaisy//src/hid/led.h ****     ~Led() {}
 983              		.loc 6 24 5 is_stmt 0 view .LVU255
 984              	.LBE568:
 985              	.LBB569:
 986              	.LBI569:
  24:../../libDaisy//src/hid/led.h ****     ~Led() {}
 987              		.loc 6 24 5 is_stmt 1 view .LVU256
  24:../../libDaisy//src/hid/led.h ****     ~Led() {}
 988              		.loc 6 24 5 is_stmt 0 view .LVU257
 989              	.LBE569:
 990              	.LBB570:
 991              	.LBI570:
  24:../../libDaisy//src/hid/led.h ****     ~Led() {}
 992              		.loc 6 24 5 is_stmt 1 view .LVU258
  24:../../libDaisy//src/hid/led.h ****     ~Led() {}
 993              		.loc 6 24 5 is_stmt 0 view .LVU259
 994              	.LBE570:
 995              	.LBE567:
 996              	.LBE566:
 997              	.LBB571:
 998              	.LBI571:
  17:../../libDaisy//src/hid/rgb_led.h ****     ~RgbLed() {}
 999              		.loc 5 17 5 is_stmt 1 view .LVU260
 1000              	.LBB572:
 1001              	.LBB573:
 1002              	.LBI573:
  24:../../libDaisy//src/hid/led.h ****     ~Led() {}
 1003              		.loc 6 24 5 view .LVU261
  24:../../libDaisy//src/hid/led.h ****     ~Led() {}
 1004              		.loc 6 24 5 is_stmt 0 view .LVU262
 1005              	.LBE573:
 1006              	.LBB574:
 1007              	.LBI574:
  24:../../libDaisy//src/hid/led.h ****     ~Led() {}
 1008              		.loc 6 24 5 is_stmt 1 view .LVU263
  24:../../libDaisy//src/hid/led.h ****     ~Led() {}
 1009              		.loc 6 24 5 is_stmt 0 view .LVU264
 1010              	.LBE574:
 1011              	.LBB575:
 1012              	.LBI575:
  24:../../libDaisy//src/hid/led.h ****     ~Led() {}
 1013              		.loc 6 24 5 is_stmt 1 view .LVU265
  24:../../libDaisy//src/hid/led.h ****     ~Led() {}
 1014              		.loc 6 24 5 is_stmt 0 view .LVU266
 1015              	.LBE575:
 1016              	.LBE572:
 1017              	.LBE571:
 1018              	.LBB576:
 1019              	.LBI515:
ARM GAS  /var/folders/lc/nz4b4n9j0917x10rycn0nzqh0000gn/T//ccns7ZyM.s 			page 51


 155:../../libDaisy//src/hid/midi.h ****     ~MidiHandler() {}
 1020              		.loc 2 155 5 is_stmt 1 view .LVU267
 1021              	.LBB555:
 1022              	.LBB520:
 1023              	.LBI517:
 1024              		.loc 2 158 12 view .LVU268
 1025              	.LBB519:
 1026 0014 FFF7FEFF 		bl	_ZN5daisy17MidiUartTransport6ConfigC1Ev
 1027              	.LVL55:
 1028              		.loc 2 158 12 is_stmt 0 view .LVU269
 1029              	.LBE519:
 1030              	.LBE520:
 1031              	.LBB521:
 1032              	.LBI521:
  31:../../libDaisy//src/hid/midi.h ****     ~MidiUartTransport() {}
 1033              		.loc 2 31 5 is_stmt 1 view .LVU270
 1034              	.LBB522:
 1035              	.LBB523:
 1036              	.LBI523:
 1037              		.file 22 "../../libDaisy//src/per/uart.h"
   1:../../libDaisy//src/per/uart.h **** /* 
   2:../../libDaisy//src/per/uart.h **** TODO
   3:../../libDaisy//src/per/uart.h **** - Overflow handling, etc. for Rx Queue.
   4:../../libDaisy//src/per/uart.h **** */
   5:../../libDaisy//src/per/uart.h **** 
   6:../../libDaisy//src/per/uart.h **** #pragma once
   7:../../libDaisy//src/per/uart.h **** #ifndef DSY_UART_H
   8:../../libDaisy//src/per/uart.h **** #define DSY_UART_H /**< macro */
   9:../../libDaisy//src/per/uart.h **** #include "daisy_core.h"
  10:../../libDaisy//src/per/uart.h **** 
  11:../../libDaisy//src/per/uart.h **** 
  12:../../libDaisy//src/per/uart.h **** namespace daisy
  13:../../libDaisy//src/per/uart.h **** {
  14:../../libDaisy//src/per/uart.h **** /** @addtogroup serial
  15:../../libDaisy//src/per/uart.h ****     @{
  16:../../libDaisy//src/per/uart.h ****     */
  17:../../libDaisy//src/per/uart.h **** 
  18:../../libDaisy//src/per/uart.h **** /** 
  19:../../libDaisy//src/per/uart.h ****     Uart Peripheral
  20:../../libDaisy//src/per/uart.h ****     @author shensley
  21:../../libDaisy//src/per/uart.h ****     @date March 2020
  22:../../libDaisy//src/per/uart.h ****     */
  23:../../libDaisy//src/per/uart.h **** class UartHandler
  24:../../libDaisy//src/per/uart.h **** {
  25:../../libDaisy//src/per/uart.h ****   public:
  26:../../libDaisy//src/per/uart.h ****     struct Config
  27:../../libDaisy//src/per/uart.h ****     {
  28:../../libDaisy//src/per/uart.h ****         enum class Peripheral
  29:../../libDaisy//src/per/uart.h ****         {
  30:../../libDaisy//src/per/uart.h ****             USART_1,
  31:../../libDaisy//src/per/uart.h ****             USART_2,
  32:../../libDaisy//src/per/uart.h ****             USART_3,
  33:../../libDaisy//src/per/uart.h ****             UART_4,
  34:../../libDaisy//src/per/uart.h ****             UART_5,
  35:../../libDaisy//src/per/uart.h ****             USART_6,
  36:../../libDaisy//src/per/uart.h ****             UART_7,
  37:../../libDaisy//src/per/uart.h ****             UART_8,
ARM GAS  /var/folders/lc/nz4b4n9j0917x10rycn0nzqh0000gn/T//ccns7ZyM.s 			page 52


  38:../../libDaisy//src/per/uart.h ****             LPUART_1,
  39:../../libDaisy//src/per/uart.h ****         };
  40:../../libDaisy//src/per/uart.h **** 
  41:../../libDaisy//src/per/uart.h ****         enum class StopBits
  42:../../libDaisy//src/per/uart.h ****         {
  43:../../libDaisy//src/per/uart.h ****             BITS_0_5,
  44:../../libDaisy//src/per/uart.h ****             BITS_1,
  45:../../libDaisy//src/per/uart.h ****             BITS_1_5,
  46:../../libDaisy//src/per/uart.h ****             BITS_2,
  47:../../libDaisy//src/per/uart.h ****         };
  48:../../libDaisy//src/per/uart.h **** 
  49:../../libDaisy//src/per/uart.h ****         enum class Parity
  50:../../libDaisy//src/per/uart.h ****         {
  51:../../libDaisy//src/per/uart.h ****             NONE,
  52:../../libDaisy//src/per/uart.h ****             EVEN,
  53:../../libDaisy//src/per/uart.h ****             ODD,
  54:../../libDaisy//src/per/uart.h ****         };
  55:../../libDaisy//src/per/uart.h **** 
  56:../../libDaisy//src/per/uart.h ****         enum class Mode
  57:../../libDaisy//src/per/uart.h ****         {
  58:../../libDaisy//src/per/uart.h ****             RX,
  59:../../libDaisy//src/per/uart.h ****             TX,
  60:../../libDaisy//src/per/uart.h ****             TX_RX,
  61:../../libDaisy//src/per/uart.h ****         };
  62:../../libDaisy//src/per/uart.h **** 
  63:../../libDaisy//src/per/uart.h ****         enum class WordLength
  64:../../libDaisy//src/per/uart.h ****         {
  65:../../libDaisy//src/per/uart.h ****             BITS_7,
  66:../../libDaisy//src/per/uart.h ****             BITS_8,
  67:../../libDaisy//src/per/uart.h ****             BITS_9,
  68:../../libDaisy//src/per/uart.h ****         };
  69:../../libDaisy//src/per/uart.h **** 
  70:../../libDaisy//src/per/uart.h ****         struct
  71:../../libDaisy//src/per/uart.h ****         {
  72:../../libDaisy//src/per/uart.h ****             dsy_gpio_pin tx; /**< & */
  73:../../libDaisy//src/per/uart.h ****             dsy_gpio_pin rx; /**< & */
  74:../../libDaisy//src/per/uart.h ****         } pin_config;        /**< & */
  75:../../libDaisy//src/per/uart.h **** 
  76:../../libDaisy//src/per/uart.h ****         Config()
  77:../../libDaisy//src/per/uart.h ****         {
  78:../../libDaisy//src/per/uart.h ****             // user must init periph, pin_config, and mode
  79:../../libDaisy//src/per/uart.h ****             stopbits   = StopBits::BITS_1;
  80:../../libDaisy//src/per/uart.h ****             parity     = Parity::NONE;
  81:../../libDaisy//src/per/uart.h ****             wordlength = WordLength::BITS_8;
  82:../../libDaisy//src/per/uart.h ****             baudrate   = 31250;
  83:../../libDaisy//src/per/uart.h ****         }
  84:../../libDaisy//src/per/uart.h **** 
  85:../../libDaisy//src/per/uart.h ****         Peripheral periph;
  86:../../libDaisy//src/per/uart.h ****         StopBits   stopbits;
  87:../../libDaisy//src/per/uart.h ****         Parity     parity;
  88:../../libDaisy//src/per/uart.h ****         Mode       mode;
  89:../../libDaisy//src/per/uart.h ****         WordLength wordlength;
  90:../../libDaisy//src/per/uart.h ****         uint32_t   baudrate;
  91:../../libDaisy//src/per/uart.h ****     };
  92:../../libDaisy//src/per/uart.h **** 
  93:../../libDaisy//src/per/uart.h **** 
  94:../../libDaisy//src/per/uart.h ****     UartHandler() : pimpl_(nullptr) {}
ARM GAS  /var/folders/lc/nz4b4n9j0917x10rycn0nzqh0000gn/T//ccns7ZyM.s 			page 53


 1038              		.loc 22 94 5 view .LVU271
 1039              		.loc 22 94 5 is_stmt 0 view .LVU272
 1040              	.LBE523:
 1041              	.LBE522:
 1042              	.LBE521:
 1043              	.LBB528:
 1044              	.LBI528:
  18:../../libDaisy//src/hid/midi_parser.h ****     ~MidiParser() {}
 1045              		.loc 4 18 5 is_stmt 1 view .LVU273
 1046              	.LBB529:
  18:../../libDaisy//src/hid/midi_parser.h ****     ~MidiParser() {}
 1047              		.loc 4 18 17 is_stmt 0 view .LVU274
 1048 0018 1C4A     		ldr	r2, .L32+8
 1049 001a 40F20F73 		movw	r3, #1807
 1050              	.LBE529:
 1051              	.LBE528:
 1052              	.LBB532:
 1053              	.LBB527:
 1054              	.LBB526:
 1055              	.LBB524:
 1056              	.LBB525:
 1057              		.loc 22 94 35 view .LVU275
 1058 001e C4F89051 		str	r5, [r4, #400]
 1059              	.LBE525:
 1060              	.LBE524:
 1061              	.LBE526:
 1062              	.LBE527:
 1063              	.LBE532:
 1064              	.LBB533:
 1065              	.LBB530:
  18:../../libDaisy//src/hid/midi_parser.h ****     ~MidiParser() {}
 1066              		.loc 4 18 17 view .LVU276
 1067 0022 C4F83822 		str	r2, [r4, #568]
 1068              	.LBE530:
 1069              	.LBE533:
 1070              	.LBB534:
 1071              	.LBB535:
 1072              	.LBB536:
 1073              	.LBB537:
 1074              	.LBB538:
  15:../../libDaisy//src/util/FIFO.h ****     {
 1075              		.loc 3 15 75 view .LVU277
 1076 0026 04F51472 		add	r2, r4, #592
 1077              	.LBE538:
 1078              	.LBE537:
 1079              	.LBE536:
 1080              	.LBE535:
 1081              	.LBE534:
 1082              	.LBB551:
 1083              	.LBB531:
  18:../../libDaisy//src/hid/midi_parser.h ****     ~MidiParser() {}
 1084              		.loc 4 18 17 view .LVU278
 1085 002a A4F83C32 		strh	r3, [r4, #572]	@ movhi
 1086              	.LVL56:
  18:../../libDaisy//src/hid/midi_parser.h ****     ~MidiParser() {}
 1087              		.loc 4 18 17 view .LVU279
 1088              	.LBE531:
ARM GAS  /var/folders/lc/nz4b4n9j0917x10rycn0nzqh0000gn/T//ccns7ZyM.s 			page 54


 1089              	.LBE551:
 1090              	.LBB552:
 1091              	.LBI534:
 299:../../libDaisy//src/util/FIFO.h **** {
 300:../../libDaisy//src/util/FIFO.h ****   public:
 301:../../libDaisy//src/util/FIFO.h ****     /** Creates an empty FIFO */
 302:../../libDaisy//src/util/FIFO.h ****     FIFO() : FIFOBase<T>(buffer_, capacity + 1) {}
 1092              		.loc 3 302 5 is_stmt 1 view .LVU280
 1093              	.LBB548:
 1094              	.LBB545:
 1095              	.LBI536:
  14:../../libDaisy//src/util/FIFO.h ****     : buffer_(buffer), bufferSize_(bufferSize), bufferIn_(0), bufferOut_(0)
 1096              		.loc 3 14 5 view .LVU281
 1097              	.LBB542:
 1098              	.LBB539:
  15:../../libDaisy//src/util/FIFO.h ****     {
 1099              		.loc 3 15 75 is_stmt 0 view .LVU282
 1100 002e 40F20113 		movw	r3, #257
 1101 0032 C4F84852 		str	r5, [r4, #584]
 1102              	.LBE539:
 1103              	.LBE542:
 1104              	.LBE545:
 1105              	.LBE548:
 1106              	.LBE552:
 1107              	.LBE555:
 1108              	.LBE576:
 1109              	.LBE580:
 1110              	.LBE584:
   7:SynthWithMoogLadder.cpp **** DaisyPod pod;
 1111              		.loc 18 7 10 view .LVU283
 1112 0036 2046     		mov	r0, r4
 1113              	.LBB585:
 1114              	.LBB581:
 1115              	.LBB577:
 1116              	.LBB556:
 1117              	.LBB553:
 1118              	.LBB549:
 1119              	.LBB546:
 1120              	.LBB543:
 1121              	.LBB540:
  15:../../libDaisy//src/util/FIFO.h ****     {
 1122              		.loc 3 15 75 view .LVU284
 1123 0038 C4F84C52 		str	r5, [r4, #588]
 1124              	.LVL57:
  15:../../libDaisy//src/util/FIFO.h ****     {
 1125              		.loc 3 15 75 view .LVU285
 1126              	.LBE540:
 1127              	.LBE543:
 1128              	.LBE546:
 1129              	.LBE549:
 1130              	.LBE553:
 1131              	.LBE556:
 1132              	.LBE577:
 1133              	.LBE581:
 1134              	.LBE585:
   7:SynthWithMoogLadder.cpp **** DaisyPod pod;
 1135              		.loc 18 7 10 view .LVU286
ARM GAS  /var/folders/lc/nz4b4n9j0917x10rycn0nzqh0000gn/T//ccns7ZyM.s 			page 55


 1136 003c 1449     		ldr	r1, .L32+12
 1137              	.LBB586:
 1138              	.LBB582:
 1139              	.LBB578:
 1140              	.LBB557:
 1141              	.LBB554:
 1142              	.LBB550:
 1143              	.LBB547:
 1144              	.LBB544:
 1145              	.LBB541:
  15:../../libDaisy//src/util/FIFO.h ****     {
 1146              		.loc 3 15 75 view .LVU287
 1147 003e C4E99023 		strd	r2, r3, [r4, #576]
 1148              	.LBE541:
 1149              	.LBE544:
 1150              	.LBE547:
 1151              	.LBE550:
 1152              	.LBE554:
 1153              	.LBE557:
 1154              	.LBE578:
 1155              	.LBE582:
 1156              	.LBE586:
   7:SynthWithMoogLadder.cpp **** DaisyPod pod;
 1157              		.loc 18 7 10 view .LVU288
 1158 0042 3246     		mov	r2, r6
 1159              	.LBB587:
 1160              	.LBB588:
 1161              	.LBB589:
  44:../../DaisySP//Source/Control/adsr.h ****     ~Adsr() {}
 1162              		.loc 15 44 12 view .LVU289
 1163 0044 134C     		ldr	r4, .L32+16
 1164              	.LBE589:
 1165              	.LBE588:
 1166              	.LBE587:
   7:SynthWithMoogLadder.cpp **** DaisyPod pod;
 1167              		.loc 18 7 10 view .LVU290
 1168 0046 FFF7FEFF 		bl	__aeabi_atexit
 1169              	.LVL58:
 1170              	.LBB596:
 1171              	.LBI596:
  23:../../DaisySP//Source/Synthesis/oscillator.h ****     ~Oscillator() {}
 1172              		.loc 16 23 5 is_stmt 1 view .LVU291
  23:../../DaisySP//Source/Synthesis/oscillator.h ****     ~Oscillator() {}
 1173              		.loc 16 23 5 is_stmt 0 view .LVU292
 1174              	.LBE596:
   8:SynthWithMoogLadder.cpp **** Oscillator osc;
 1175              		.loc 18 8 12 view .LVU293
 1176 004a 3246     		mov	r2, r6
 1177 004c 1249     		ldr	r1, .L32+20
 1178 004e 1348     		ldr	r0, .L32+24
 1179 0050 FFF7FEFF 		bl	__aeabi_atexit
 1180              	.LVL59:
 1181              	.LBB597:
 1182              	.LBI597:
  22:../../DaisySP//DaisySP-LGPL/Source/Filters/moogladder.h ****     ~MoogLadder() {}
 1183              		.loc 17 22 5 is_stmt 1 view .LVU294
  22:../../DaisySP//DaisySP-LGPL/Source/Filters/moogladder.h ****     ~MoogLadder() {}
ARM GAS  /var/folders/lc/nz4b4n9j0917x10rycn0nzqh0000gn/T//ccns7ZyM.s 			page 56


 1184              		.loc 17 22 5 is_stmt 0 view .LVU295
 1185              	.LBE597:
   9:SynthWithMoogLadder.cpp **** MoogLadder flt;
 1186              		.loc 18 9 12 view .LVU296
 1187 0054 3246     		mov	r2, r6
 1188 0056 1249     		ldr	r1, .L32+28
 1189 0058 1248     		ldr	r0, .L32+32
 1190 005a FFF7FEFF 		bl	__aeabi_atexit
 1191              	.LVL60:
 1192              	.LBB598:
 1193              	.LBI587:
  44:../../DaisySP//Source/Control/adsr.h ****     ~Adsr() {}
 1194              		.loc 15 44 5 is_stmt 1 view .LVU297
 1195              	.LBB593:
 1196              	.LBB590:
  44:../../DaisySP//Source/Control/adsr.h ****     ~Adsr() {}
 1197              		.loc 15 44 12 is_stmt 0 view .LVU298
 1198 005e 1248     		ldr	r0, .L32+36
 1199 0060 0023     		movs	r3, #0
 1200              	.LBE590:
 1201              	.LBE593:
 1202              	.LBE598:
  10:SynthWithMoogLadder.cpp **** Adsr env;
 1203              		.loc 18 10 6 view .LVU299
 1204 0062 3246     		mov	r2, r6
 1205              	.LBB599:
 1206              	.LBB594:
  44:../../DaisySP//Source/Control/adsr.h ****     ~Adsr() {}
 1207              		.loc 15 44 12 view .LVU300
 1208 0064 8585     		strh	r5, [r0, #44]	@ movhi
 1209              	.LVL61:
 1210              	.LBB591:
  44:../../DaisySP//Source/Control/adsr.h ****     ~Adsr() {}
 1211              		.loc 15 44 12 view .LVU301
 1212 0066 8460     		str	r4, [r0, #8]	@ float
 1213 0068 0461     		str	r4, [r0, #16]	@ float
 1214 006a 4461     		str	r4, [r0, #20]	@ float
 1215 006c 8461     		str	r4, [r0, #24]	@ float
 1216              	.LBE591:
 1217              	.LBE594:
 1218              	.LBE599:
  10:SynthWithMoogLadder.cpp **** Adsr env;
 1219              		.loc 18 10 6 view .LVU302
 1220 006e 0F49     		ldr	r1, .L32+40
 1221              	.LBB600:
 1222              	.LBB595:
 1223              	.LBB592:
  44:../../DaisySP//Source/Control/adsr.h ****     ~Adsr() {}
 1224              		.loc 15 44 12 view .LVU303
 1225 0070 0360     		str	r3, [r0]	@ float
 1226 0072 4360     		str	r3, [r0, #4]	@ float
 1227 0074 C360     		str	r3, [r0, #12]	@ float
 1228 0076 C361     		str	r3, [r0, #28]	@ float
 1229 0078 0362     		str	r3, [r0, #32]	@ float
 1230 007a 4362     		str	r3, [r0, #36]	@ float
 1231              	.LBE592:
 1232              	.LBE595:
ARM GAS  /var/folders/lc/nz4b4n9j0917x10rycn0nzqh0000gn/T//ccns7ZyM.s 			page 57


 1233              	.LBE600:
 1234              	.LBE601:
 1235              	.LBE603:
 1236              		.loc 18 72 1 view .LVU304
 1237 007c BDE87040 		pop	{r4, r5, r6, lr}
 1238              		.cfi_restore 14
 1239              		.cfi_restore 6
 1240              		.cfi_restore 5
 1241              		.cfi_restore 4
 1242              		.cfi_def_cfa_offset 0
 1243              	.LBB604:
 1244              	.LBB602:
  10:SynthWithMoogLadder.cpp **** Adsr env;
 1245              		.loc 18 10 6 view .LVU305
 1246 0080 FFF7FEBF 		b	__aeabi_atexit
 1247              	.LVL62:
 1248              	.L33:
 1249              		.align	2
 1250              	.L32:
 1251 0084 00000000 		.word	pod
 1252 0088 00000000 		.word	__dso_handle
 1253 008c 0080707F 		.word	2138079232
 1254 0090 00000000 		.word	_ZN5daisy8DaisyPodD1Ev
 1255 0094 000080BF 		.word	-1082130432
 1256 0098 00000000 		.word	_ZN7daisysp10OscillatorD1Ev
 1257 009c 00000000 		.word	.LANCHOR0
 1258 00a0 00000000 		.word	_ZN7daisysp10MoogLadderD1Ev
 1259 00a4 00000000 		.word	.LANCHOR1
 1260 00a8 00000000 		.word	.LANCHOR3
 1261 00ac 00000000 		.word	_ZN7daisysp4AdsrD1Ev
 1262              	.LBE602:
 1263              	.LBE604:
 1264              		.cfi_endproc
 1265              	.LFE5439:
 1267              		.section	.init_array,"aw",%init_array
 1268              		.align	2
 1269 0000 00000000 		.word	_GLOBAL__sub_I_pod(target1)
 1270              		.global	gate
 1271              		.global	env
 1272              		.global	flt
 1273              		.global	osc
 1274              		.global	pod
 1275              		.section	.bss.env,"aw",%nobits
 1276              		.align	2
 1277              		.set	.LANCHOR3,. + 0
 1280              	env:
 1281 0000 00000000 		.space	48
 1281      00000000 
 1281      00000000 
 1281      00000000 
 1281      00000000 
 1282              		.section	.bss.flt,"aw",%nobits
 1283              		.align	2
 1284              		.set	.LANCHOR1,. + 0
 1287              	flt:
 1288 0000 00000000 		.space	68
 1288      00000000 
ARM GAS  /var/folders/lc/nz4b4n9j0917x10rycn0nzqh0000gn/T//ccns7ZyM.s 			page 58


 1288      00000000 
 1288      00000000 
 1288      00000000 
 1289              		.section	.bss.gate,"aw",%nobits
 1290              		.set	.LANCHOR2,. + 0
 1293              	gate:
 1294 0000 00       		.space	1
 1295              		.section	.bss.osc,"aw",%nobits
 1296              		.align	2
 1297              		.set	.LANCHOR0,. + 0
 1300              	osc:
 1301 0000 00000000 		.space	44
 1301      00000000 
 1301      00000000 
 1301      00000000 
 1301      00000000 
 1302              		.section	.bss.pod,"aw",%nobits
 1303              		.align	2
 1306              	pod:
 1307 0000 00000000 		.space	37600
 1307      00000000 
 1307      00000000 
 1307      00000000 
 1307      00000000 
 1308              		.text
 1309              	.Letext0:
 1310              		.file 23 "/Library/DaisyToolchain/0.2.0/arm/arm-none-eabi/include/machine/_default_types.h"
 1311              		.file 24 "/Library/DaisyToolchain/0.2.0/arm/arm-none-eabi/include/sys/_stdint.h"
 1312              		.file 25 "/Library/DaisyToolchain/0.2.0/arm/arm-none-eabi/include/stdint.h"
 1313              		.file 26 "/Library/DaisyToolchain/0.2.0/arm/lib/gcc/arm-none-eabi/10.3.1/include/stddef.h"
 1314              		.file 27 "/Library/DaisyToolchain/0.2.0/arm/arm-none-eabi/include/c++/10.3.1/cmath"
 1315              		.file 28 "/Library/DaisyToolchain/0.2.0/arm/arm-none-eabi/include/c++/10.3.1/bits/std_abs.h"
 1316              		.file 29 "/Library/DaisyToolchain/0.2.0/arm/arm-none-eabi/include/c++/10.3.1/cstdlib"
 1317              		.file 30 "/Library/DaisyToolchain/0.2.0/arm/arm-none-eabi/include/c++/10.3.1/cstdint"
 1318              		.file 31 "/Library/DaisyToolchain/0.2.0/arm/arm-none-eabi/include/c++/10.3.1/arm-none-eabi/thumb/v
 1319              		.file 32 "/Library/DaisyToolchain/0.2.0/arm/arm-none-eabi/include/c++/10.3.1/type_traits"
 1320              		.file 33 "/Library/DaisyToolchain/0.2.0/arm/arm-none-eabi/include/c++/10.3.1/debug/debug.h"
 1321              		.file 34 "/Library/DaisyToolchain/0.2.0/arm/arm-none-eabi/include/c++/10.3.1/bits/algorithmfwd.h"
 1322              		.file 35 "/Library/DaisyToolchain/0.2.0/arm/arm-none-eabi/include/c++/10.3.1/bits/stl_pair.h"
 1323              		.file 36 "/Library/DaisyToolchain/0.2.0/arm/arm-none-eabi/include/c++/10.3.1/bits/exception_ptr.h"
 1324              		.file 37 "/Library/DaisyToolchain/0.2.0/arm/arm-none-eabi/include/c++/10.3.1/initializer_list"
 1325              		.file 38 "/Library/DaisyToolchain/0.2.0/arm/arm-none-eabi/include/c++/10.3.1/cstdarg"
 1326              		.file 39 "/Library/DaisyToolchain/0.2.0/arm/arm-none-eabi/include/c++/10.3.1/cstdio"
 1327              		.file 40 "/Library/DaisyToolchain/0.2.0/arm/arm-none-eabi/include/c++/10.3.1/cstring"
 1328              		.file 41 "/Library/DaisyToolchain/0.2.0/arm/arm-none-eabi/include/c++/10.3.1/cwchar"
 1329              		.file 42 "/Library/DaisyToolchain/0.2.0/arm/arm-none-eabi/include/c++/10.3.1/clocale"
 1330              		.file 43 "/Library/DaisyToolchain/0.2.0/arm/arm-none-eabi/include/c++/10.3.1/bits/basic_string.h"
 1331              		.file 44 "/Library/DaisyToolchain/0.2.0/arm/arm-none-eabi/include/c++/10.3.1/bits/stl_iterator.h"
 1332              		.file 45 "/Library/DaisyToolchain/0.2.0/arm/arm-none-eabi/include/c++/10.3.1/bits/predefined_ops.h
 1333              		.file 46 "/Library/DaisyToolchain/0.2.0/arm/arm-none-eabi/include/sys/_types.h"
 1334              		.file 47 "/Library/DaisyToolchain/0.2.0/arm/arm-none-eabi/include/sys/reent.h"
 1335              		.file 48 "/Library/DaisyToolchain/0.2.0/arm/arm-none-eabi/include/sys/lock.h"
 1336              		.file 49 "/Library/DaisyToolchain/0.2.0/arm/arm-none-eabi/include/math.h"
 1337              		.file 50 "/Library/DaisyToolchain/0.2.0/arm/arm-none-eabi/include/stdlib.h"
 1338              		.file 51 "/Library/DaisyToolchain/0.2.0/arm/arm-none-eabi/include/c++/10.3.1/math.h"
 1339              		.file 52 "/Library/DaisyToolchain/0.2.0/arm/arm-none-eabi/include/c++/10.3.1/stdlib.h"
 1340              		.file 53 "../../libDaisy//src/daisy_core.h"
ARM GAS  /var/folders/lc/nz4b4n9j0917x10rycn0nzqh0000gn/T//ccns7ZyM.s 			page 59


 1341              		.file 54 "../../libDaisy//src/per/tim.h"
 1342              		.file 55 "../../libDaisy//src/hid/MidiEvent.h"
 1343              		.file 56 "../../libDaisy//src/util/wav_format.h"
 1344              		.file 57 "../../libDaisy//src/util/color.h"
 1345              		.file 58 "../../libDaisy//src/dev/max11300.h"
 1346              		.file 59 "../../libDaisy//src/per/gpio.h"
 1347              		.file 60 "../../libDaisy//src/dev/sdram.h"
 1348              		.file 61 "/Library/DaisyToolchain/0.2.0/arm/lib/gcc/arm-none-eabi/10.3.1/include/stdarg.h"
 1349              		.file 62 "/Library/DaisyToolchain/0.2.0/arm/arm-none-eabi/include/stdio.h"
 1350              		.file 63 "/Library/DaisyToolchain/0.2.0/arm/arm-none-eabi/include/string.h"
 1351              		.file 64 "../../DaisySP//Source/Control/adenv.h"
 1352              		.file 65 "../../DaisySP//Source/Utility/dsp.h"
 1353              		.file 66 "/Library/DaisyToolchain/0.2.0/arm/arm-none-eabi/include/wchar.h"
 1354              		.file 67 "/Library/DaisyToolchain/0.2.0/arm/arm-none-eabi/include/locale.h"
 1355              		.file 68 "<built-in>"
 1356              		.file 69 "../../libDaisy//src/dev/sr_595.h"
ARM GAS  /var/folders/lc/nz4b4n9j0917x10rycn0nzqh0000gn/T//ccns7ZyM.s 			page 60

